---
triple:          'arm64-apple-darwin'
binary-path:     '/Users/anushkavarshney/Documents/code/GITHUB/coding_practice/codeforces/output/1904B'
relocations:
  - { offsetInCU: 0x3FAF, offset: 0x3FAF, size: 0x8, addend: 0x0, symName: __ZNSt3__111__sift_downB7v160006INS_17_ClassicAlgPolicyERNS_6__lessIxxEENS_11__wrap_iterIPxEEEEvT1_OT0_NS_15iterator_traitsIS8_E15difference_typeES8_, symObjAddr: 0x1F3C, symBinAddr: 0x1000042D8, symSize: 0x2DC }
  - { offsetInCU: 0x408E, offset: 0x408E, size: 0x8, addend: 0x0, symName: __ZNSt3__117__floyd_sift_downB7v160006INS_17_ClassicAlgPolicyERNS_6__lessIxxEENS_11__wrap_iterIPxEEEET1_S8_OT0_NS_15iterator_traitsIS8_E15difference_typeE, symObjAddr: 0x2550, symBinAddr: 0x1000048EC, symSize: 0x14C }
  - { offsetInCU: 0x8075, offset: 0x8075, size: 0x8, addend: 0x0, symName: __ZNSt3__14sortB7v160006INS_11__wrap_iterIPxEEEEvT_S4_, symObjAddr: 0x48C, symBinAddr: 0x100002828, symSize: 0x3C }
  - { offsetInCU: 0x8CF1, offset: 0x8CF1, size: 0x8, addend: 0x0, symName: __ZNSt3__14endlB7v160006IcNS_11char_traitsIcEEEERNS_13basic_ostreamIT_T0_EES7_, symObjAddr: 0x6A8, symBinAddr: 0x100002A44, symSize: 0x58 }
  - { offsetInCU: 0x8D31, offset: 0x8D31, size: 0x8, addend: 0x0, symName: __ZNSt3__122__make_exception_guardB7v160006INS_6vectorIxNS_9allocatorIxEEE16__destroy_vectorEEENS_28__exception_guard_exceptionsIT_EES7_, symObjAddr: 0x958, symBinAddr: 0x100002CF4, symSize: 0x40 }
  - { offsetInCU: 0x8D66, offset: 0x8D66, size: 0x8, addend: 0x0, symName: __ZNSt3__119__debug_db_insert_cB7v160006INS_6vectorIxNS_9allocatorIxEEEEEEvPT_, symObjAddr: 0x9CC, symBinAddr: 0x100002D68, symSize: 0x10 }
  - { offsetInCU: 0x8D97, offset: 0x8D97, size: 0x8, addend: 0x0, symName: __ZNSt3__119__allocate_at_leastB7v160006INS_9allocatorIxEEEENS_19__allocation_resultINS_16allocator_traitsIT_E7pointerEEERS5_m, symObjAddr: 0xD70, symBinAddr: 0x10000310C, symSize: 0x40 }
  - { offsetInCU: 0x8DDA, offset: 0x8DDA, size: 0x8, addend: 0x0, symName: __ZNSt3__13minB7v160006ImEERKT_S3_S3_, symObjAddr: 0xEAC, symBinAddr: 0x100003248, symSize: 0x2C }
  - { offsetInCU: 0x901E, offset: 0x901E, size: 0x8, addend: 0x0, symName: __ZNSt3__13minB7v160006ImNS_6__lessImmEEEERKT_S5_S5_T0_, symObjAddr: 0xF38, symBinAddr: 0x1000032D4, symSize: 0x54 }
  - { offsetInCU: 0x90B3, offset: 0x90B3, size: 0x8, addend: 0x0, symName: __ZNSt3__120__throw_length_errorB7v160006EPKc, symObjAddr: 0x1014, symBinAddr: 0x1000033B0, symSize: 0x64 }
  - { offsetInCU: 0x90DB, offset: 0x90DB, size: 0x8, addend: 0x0, symName: __ZNSt3__130__libcpp_is_constant_evaluatedB7v160006Ev, symObjAddr: 0x11B0, symBinAddr: 0x10000354C, symSize: 0xC }
  - { offsetInCU: 0x90F8, offset: 0x90F8, size: 0x8, addend: 0x0, symName: __ZNSt3__117__libcpp_allocateB7v160006Emm, symObjAddr: 0x11BC, symBinAddr: 0x100003558, symSize: 0x28 }
  - { offsetInCU: 0x9135, offset: 0x9135, size: 0x8, addend: 0x0, symName: __ZNSt3__121__libcpp_operator_newB7v160006IJmEEEPvDpT_, symObjAddr: 0x11E4, symBinAddr: 0x100003580, symSize: 0x24 }
  - { offsetInCU: 0x916E, offset: 0x916E, size: 0x8, addend: 0x0, symName: __ZNSt3__112__to_addressB7v160006IxEEPT_S2_, symObjAddr: 0x1300, symBinAddr: 0x10000369C, symSize: 0x14 }
  - { offsetInCU: 0x91A3, offset: 0x91A3, size: 0x8, addend: 0x0, symName: __ZNSt3__118__debug_db_erase_cB7v160006INS_6vectorIxNS_9allocatorIxEEEEEEvPT_, symObjAddr: 0x1624, symBinAddr: 0x1000039C0, symSize: 0x10 }
  - { offsetInCU: 0x91D4, offset: 0x91D4, size: 0x8, addend: 0x0, symName: __ZNSt3__119__libcpp_deallocateB7v160006EPvmm, symObjAddr: 0x1808, symBinAddr: 0x100003BA4, symSize: 0x30 }
  - { offsetInCU: 0x921C, offset: 0x921C, size: 0x8, addend: 0x0, symName: __ZNSt3__127__do_deallocate_handle_sizeB7v160006IJEEEvPvmDpT_, symObjAddr: 0x1838, symBinAddr: 0x100003BD4, symSize: 0x28 }
  - { offsetInCU: 0x925A, offset: 0x925A, size: 0x8, addend: 0x0, symName: __ZNSt3__124__libcpp_operator_deleteB7v160006IJPvEEEvDpT_, symObjAddr: 0x1860, symBinAddr: 0x100003BFC, symSize: 0x24 }
  - { offsetInCU: 0x928F, offset: 0x928F, size: 0x8, addend: 0x0, symName: __ZNSt3__14sortB7v160006INS_11__wrap_iterIPxEENS_6__lessIxxEEEEvT_S6_T0_, symObjAddr: 0x1954, symBinAddr: 0x100003CF0, symSize: 0x40 }
  - { offsetInCU: 0x92E9, offset: 0x92E9, size: 0x8, addend: 0x0, symName: __ZNSt3__111__sort_implB7v160006INS_17_ClassicAlgPolicyENS_11__wrap_iterIPxEENS_6__lessIxxEEEEvT0_S7_RT1_, symObjAddr: 0x1994, symBinAddr: 0x100003D30, symSize: 0xC8 }
  - { offsetInCU: 0x9390, offset: 0x9390, size: 0x8, addend: 0x0, symName: __ZNSt3__123__debug_randomize_rangeB7v160006INS_17_ClassicAlgPolicyENS_11__wrap_iterIPxEES4_EEvT0_T1_, symObjAddr: 0x1A5C, symBinAddr: 0x100003DF8, symSize: 0x14 }
  - { offsetInCU: 0x93E1, offset: 0x93E1, size: 0x8, addend: 0x0, symName: __ZNSt3__114__partial_sortB7v160006INS_17_ClassicAlgPolicyENS_6__lessIxxEENS_11__wrap_iterIPxEES6_EET1_S7_S7_T2_RT0_, symObjAddr: 0x1A70, symBinAddr: 0x100003E0C, symSize: 0xD8 }
  - { offsetInCU: 0x9469, offset: 0x9469, size: 0x8, addend: 0x0, symName: __ZNSt3__113__unwrap_iterB7v160006INS_11__wrap_iterIPxEENS_18__unwrap_iter_implIS3_Lb1EEELi0EEEDTclsrT0_8__unwrapclsr3stdE7declvalIT_EEEES7_, symObjAddr: 0x1B48, symBinAddr: 0x100003EE4, symSize: 0x2C }
  - { offsetInCU: 0x94AD, offset: 0x94AD, size: 0x8, addend: 0x0, symName: __ZNSt3__1eqB7v160006IPxEEbRKNS_11__wrap_iterIT_EES6_, symObjAddr: 0x1B74, symBinAddr: 0x100003F10, symSize: 0x48 }
  - { offsetInCU: 0x958A, offset: 0x958A, size: 0x8, addend: 0x0, symName: __ZNSt3__119__partial_sort_implB7v160006INS_17_ClassicAlgPolicyERNS_6__lessIxxEENS_11__wrap_iterIPxEES7_EET1_S8_S8_T2_OT0_, symObjAddr: 0x1BDC, symBinAddr: 0x100003F78, symSize: 0x168 }
  - { offsetInCU: 0x9621, offset: 0x9621, size: 0x8, addend: 0x0, symName: __ZNSt3__111__make_heapB7v160006INS_17_ClassicAlgPolicyERNS_6__lessIxxEENS_11__wrap_iterIPxEEEEvT1_S8_OT0_, symObjAddr: 0x1D5C, symBinAddr: 0x1000040F8, symSize: 0xD4 }
  - { offsetInCU: 0x96C3, offset: 0x96C3, size: 0x8, addend: 0x0, symName: __ZNSt3__1miB7v160006IPxS1_EENS_11__wrap_iterIT_E15difference_typeERKS4_RKNS2_IT0_EE, symObjAddr: 0x1E30, symBinAddr: 0x1000041CC, symSize: 0x48 }
  - { offsetInCU: 0x970F, offset: 0x970F, size: 0x8, addend: 0x0, symName: __ZNSt3__1neB7v160006IPxEEbRKNS_11__wrap_iterIT_EES6_, symObjAddr: 0x1E78, symBinAddr: 0x100004214, symSize: 0x34 }
  - { offsetInCU: 0x978D, offset: 0x978D, size: 0x8, addend: 0x0, symName: __ZNSt3__111__sort_heapB7v160006INS_17_ClassicAlgPolicyERNS_6__lessIxxEENS_11__wrap_iterIPxEEEEvT1_S8_OT0_, symObjAddr: 0x2238, symBinAddr: 0x1000045D4, symSize: 0x98 }
  - { offsetInCU: 0x9821, offset: 0x9821, size: 0x8, addend: 0x0, symName: __ZNSt3__19iter_swapB7v160006INS_11__wrap_iterIPxEES3_EEvT_T0_, symObjAddr: 0x2334, symBinAddr: 0x1000046D0, symSize: 0x50 }
  - { offsetInCU: 0x9869, offset: 0x9869, size: 0x8, addend: 0x0, symName: __ZNSt3__14swapB7v160006IxEEvRT_S2_, symObjAddr: 0x2384, symBinAddr: 0x100004720, symSize: 0x3C }
  - { offsetInCU: 0x98DE, offset: 0x98DE, size: 0x8, addend: 0x0, symName: __ZNSt3__110__pop_heapB7v160006INS_17_ClassicAlgPolicyENS_6__lessIxxEENS_11__wrap_iterIPxEEEEvT1_S7_RT0_NS_15iterator_traitsIS7_E15difference_typeE, symObjAddr: 0x23EC, symBinAddr: 0x100004788, symSize: 0x144 }
  - { offsetInCU: 0x998E, offset: 0x998E, size: 0x8, addend: 0x0, symName: __ZNSt3__19__sift_upB7v160006INS_17_ClassicAlgPolicyERNS_6__lessIxxEENS_11__wrap_iterIPxEEEEvT1_S8_OT0_NS_15iterator_traitsIS8_E15difference_typeE, symObjAddr: 0x269C, symBinAddr: 0x100004A38, symSize: 0x168 }
  - { offsetInCU: 0x9A91, offset: 0x9A91, size: 0x8, addend: 0x0, symName: __ZNSt3__112__to_addressB7v160006INS_11__wrap_iterIPxEEvEENS_5decayIDTclsr19__to_address_helperIT_EE6__callclsr3stdE7declvalIRKS5_EEEEE4typeES7_, symObjAddr: 0x282C, symBinAddr: 0x100004BC8, symSize: 0x24 }
  - { offsetInCU: 0x9B70, offset: 0x9B70, size: 0x8, addend: 0x0, symName: __ZNSt3__119__debug_db_insert_cB7v160006INS_13unordered_mapIxxNS_4hashIxEENS_8equal_toIxEENS_9allocatorINS_4pairIKxxEEEEEEEEvPT_, symObjAddr: 0x293C, symBinAddr: 0x100004CD8, symSize: 0x10 }
  - { offsetInCU: 0x9BA1, offset: 0x9BA1, size: 0x8, addend: 0x0, symName: __ZNSt3__118__debug_db_erase_cB7v160006INS_12__hash_tableINS_17__hash_value_typeIxxEENS_22__unordered_map_hasherIxS3_NS_4hashIxEENS_8equal_toIxEELb1EEENS_21__unordered_map_equalIxS3_S8_S6_Lb1EEENS_9allocatorIS3_EEEEEEvPT_, symObjAddr: 0x33F0, symBinAddr: 0x10000578C, symSize: 0x10 }
  - { offsetInCU: 0x9C05, offset: 0x9C05, size: 0x8, addend: 0x0, symName: __ZNSt3__1neB7v160006ERKNS_19__hash_map_iteratorINS_15__hash_iteratorIPNS_11__hash_nodeINS_17__hash_value_typeIxxEEPvEEEEEESB_, symObjAddr: 0x3608, symBinAddr: 0x1000059A4, symSize: 0x30 }
  - { offsetInCU: 0x9C42, offset: 0x9C42, size: 0x8, addend: 0x0, symName: __ZNSt3__116__constrain_hashB7v160006Emm, symObjAddr: 0x3BDC, symBinAddr: 0x100005F78, symSize: 0x98 }
  - { offsetInCU: 0x9C7C, offset: 0x9C7C, size: 0x8, addend: 0x0, symName: __ZNSt3__1neB7v160006ERKNS_15__hash_iteratorIPNS_11__hash_nodeINS_17__hash_value_typeIxxEEPvEEEES9_, symObjAddr: 0x3FB0, symBinAddr: 0x10000634C, symSize: 0x34 }
  - { offsetInCU: 0x9CB9, offset: 0x9CB9, size: 0x8, addend: 0x0, symName: __ZNSt3__1eqB7v160006ERKNS_15__hash_iteratorIPNS_11__hash_nodeINS_17__hash_value_typeIxxEEPvEEEES9_, symObjAddr: 0x3FE4, symBinAddr: 0x100006380, symSize: 0x30 }
  - { offsetInCU: 0x9D7A, offset: 0x9D7A, size: 0x8, addend: 0x0, symName: __ZNSt3__13maxB7v160006ImEERKT_S3_S3_, symObjAddr: 0x4980, symBinAddr: 0x100006D1C, symSize: 0x2C }
  - { offsetInCU: 0x9DBD, offset: 0x9DBD, size: 0x8, addend: 0x0, symName: __ZNSt3__116__is_hash_power2B7v160006Em, symObjAddr: 0x49AC, symBinAddr: 0x100006D48, symSize: 0x50 }
  - { offsetInCU: 0x9DE9, offset: 0x9DE9, size: 0x8, addend: 0x0, symName: __ZNSt3__116__next_hash_pow2B7v160006Em, symObjAddr: 0x4EA8, symBinAddr: 0x100007244, symSize: 0x6C }
  - { offsetInCU: 0x9E15, offset: 0x9E15, size: 0x8, addend: 0x0, symName: __ZNSt3__125__debug_db_invalidate_allB7v160006INS_12__hash_tableINS_17__hash_value_typeIxxEENS_22__unordered_map_hasherIxS3_NS_4hashIxEENS_8equal_toIxEELb1EEENS_21__unordered_map_equalIxS3_S8_S6_Lb1EEENS_9allocatorIS3_EEEEEEvPT_, symObjAddr: 0x4F14, symBinAddr: 0x1000072B0, symSize: 0x10 }
  - { offsetInCU: 0x9E62, offset: 0x9E62, size: 0x8, addend: 0x0, symName: __ZNSt3__112__libcpp_clzB7v160006Em, symObjAddr: 0x50A8, symBinAddr: 0x100007444, symSize: 0x1C }
  - { offsetInCU: 0x9E8E, offset: 0x9E8E, size: 0x8, addend: 0x0, symName: __ZNSt3__13maxB7v160006ImNS_6__lessImmEEEERKT_S5_S5_T0_, symObjAddr: 0x50C4, symBinAddr: 0x100007460, symSize: 0x54 }
  - { offsetInCU: 0x9EE8, offset: 0x9EE8, size: 0x8, addend: 0x0, symName: __ZNSt3__19use_facetB7v160006INS_5ctypeIcEEEERKT_RKNS_6localeE, symObjAddr: 0x5418, symBinAddr: 0x1000077B4, symSize: 0x2C }
  - { offsetInCU: 0xA5CF, offset: 0xA5CF, size: 0x8, addend: 0x0, symName: __ZSt28__throw_bad_array_new_lengthB7v160006v, symObjAddr: 0x117C, symBinAddr: 0x100003518, symSize: 0x34 }
  - { offsetInCU: 0xD111, offset: 0xD111, size: 0x8, addend: 0x0, symName: __Z5solvev, symObjAddr: 0x0, symBinAddr: 0x10000239C, symSize: 0x434 }
  - { offsetInCU: 0xD248, offset: 0xD248, size: 0x8, addend: 0x0, symName: __ZNSt3__16vectorIxNS_9allocatorIxEEEC1Em, symObjAddr: 0x434, symBinAddr: 0x1000027D0, symSize: 0x34 }
  - { offsetInCU: 0xD283, offset: 0xD283, size: 0x8, addend: 0x0, symName: __ZNSt3__16vectorIxNS_9allocatorIxEEEixB7v160006Em, symObjAddr: 0x468, symBinAddr: 0x100002804, symSize: 0x24 }
  - { offsetInCU: 0xD2BA, offset: 0xD2BA, size: 0x8, addend: 0x0, symName: __ZNSt3__16vectorIxNS_9allocatorIxEEE5beginB7v160006Ev, symObjAddr: 0x4C8, symBinAddr: 0x100002864, symSize: 0x30 }
  - { offsetInCU: 0xD2E2, offset: 0xD2E2, size: 0x8, addend: 0x0, symName: __ZNSt3__16vectorIxNS_9allocatorIxEEE3endB7v160006Ev, symObjAddr: 0x4F8, symBinAddr: 0x100002894, symSize: 0x30 }
  - { offsetInCU: 0xD30A, offset: 0xD30A, size: 0x8, addend: 0x0, symName: __ZNSt3__113unordered_mapIxxNS_4hashIxEENS_8equal_toIxEENS_9allocatorINS_4pairIKxxEEEEEC1B7v160006Ev, symObjAddr: 0x528, symBinAddr: 0x1000028C4, symSize: 0x2C }
  - { offsetInCU: 0xD334, offset: 0xD334, size: 0x8, addend: 0x0, symName: __ZNSt3__113unordered_mapIxxNS_4hashIxEENS_8equal_toIxEENS_9allocatorINS_4pairIKxxEEEEEixERS7_, symObjAddr: 0x554, symBinAddr: 0x1000028F0, symSize: 0x128 }
  - { offsetInCU: 0xD449, offset: 0xD449, size: 0x8, addend: 0x0, symName: __ZNSt3__113basic_ostreamIcNS_11char_traitsIcEEElsB7v160006EPFRS3_S4_E, symObjAddr: 0x67C, symBinAddr: 0x100002A18, symSize: 0x2C }
  - { offsetInCU: 0xD47D, offset: 0xD47D, size: 0x8, addend: 0x0, symName: __ZNSt3__113unordered_mapIxxNS_4hashIxEENS_8equal_toIxEENS_9allocatorINS_4pairIKxxEEEEED1B7v160006Ev, symObjAddr: 0x700, symBinAddr: 0x100002A9C, symSize: 0x2C }
  - { offsetInCU: 0xD4A7, offset: 0xD4A7, size: 0x8, addend: 0x0, symName: __ZNSt3__16vectorIxNS_9allocatorIxEEED1B7v160006Ev, symObjAddr: 0x738, symBinAddr: 0x100002AD4, symSize: 0x2C }
  - { offsetInCU: 0xD4D1, offset: 0xD4D1, size: 0x8, addend: 0x0, symName: _main, symObjAddr: 0x764, symBinAddr: 0x100002B00, symSize: 0xA4 }
  - { offsetInCU: 0xD4FA, offset: 0xD4FA, size: 0x8, addend: 0x0, symName: __ZNSt3__19basic_iosIcNS_11char_traitsIcEEE3tieB7v160006EPNS_13basic_ostreamIcS2_EE, symObjAddr: 0x808, symBinAddr: 0x100002BA4, symSize: 0x2C }
  - { offsetInCU: 0xD540, offset: 0xD540, size: 0x8, addend: 0x0, symName: __ZNSt3__16vectorIxNS_9allocatorIxEEEC2Em, symObjAddr: 0x834, symBinAddr: 0x100002BD0, symSize: 0xE8 }
  - { offsetInCU: 0xD59B, offset: 0xD59B, size: 0x8, addend: 0x0, symName: __ZNSt3__117__compressed_pairIPxNS_9allocatorIxEEEC1B7v160006IDnNS_18__default_init_tagEEEOT_OT0_, symObjAddr: 0x91C, symBinAddr: 0x100002CB8, symSize: 0x3C }
  - { offsetInCU: 0xD5F3, offset: 0xD5F3, size: 0x8, addend: 0x0, symName: __ZNSt3__16vectorIxNS_9allocatorIxEEE16__destroy_vectorC1ERS3_, symObjAddr: 0x998, symBinAddr: 0x100002D34, symSize: 0x34 }
  - { offsetInCU: 0xD62C, offset: 0xD62C, size: 0x8, addend: 0x0, symName: __ZNSt3__16vectorIxNS_9allocatorIxEEE11__vallocateB7v160006Em, symObjAddr: 0x9DC, symBinAddr: 0x100002D78, symSize: 0xAC }
  - { offsetInCU: 0xD670, offset: 0xD670, size: 0x8, addend: 0x0, symName: __ZNSt3__16vectorIxNS_9allocatorIxEEE18__construct_at_endEm, symObjAddr: 0xA88, symBinAddr: 0x100002E24, symSize: 0xD0 }
  - { offsetInCU: 0xD6E2, offset: 0xD6E2, size: 0x8, addend: 0x0, symName: __ZNSt3__128__exception_guard_exceptionsINS_6vectorIxNS_9allocatorIxEEE16__destroy_vectorEE10__completeB7v160006Ev, symObjAddr: 0xB58, symBinAddr: 0x100002EF4, symSize: 0x1C }
  - { offsetInCU: 0xD708, offset: 0xD708, size: 0x8, addend: 0x0, symName: __ZNSt3__128__exception_guard_exceptionsINS_6vectorIxNS_9allocatorIxEEE16__destroy_vectorEED1B7v160006Ev, symObjAddr: 0xB74, symBinAddr: 0x100002F10, symSize: 0x2C }
  - { offsetInCU: 0xD732, offset: 0xD732, size: 0x8, addend: 0x0, symName: __ZNSt3__117__compressed_pairIPxNS_9allocatorIxEEEC2B7v160006IDnNS_18__default_init_tagEEEOT_OT0_, symObjAddr: 0xBA0, symBinAddr: 0x100002F3C, symSize: 0x40 }
  - { offsetInCU: 0xD78A, offset: 0xD78A, size: 0x8, addend: 0x0, symName: __ZNSt3__122__compressed_pair_elemIPxLi0ELb0EEC2B7v160006IDnvEEOT_, symObjAddr: 0xBE0, symBinAddr: 0x100002F7C, symSize: 0x1C }
  - { offsetInCU: 0xD7CC, offset: 0xD7CC, size: 0x8, addend: 0x0, symName: __ZNSt3__122__compressed_pair_elemINS_9allocatorIxEELi1ELb1EEC2B7v160006ENS_18__default_init_tagE, symObjAddr: 0xBFC, symBinAddr: 0x100002F98, symSize: 0x2C }
  - { offsetInCU: 0xD801, offset: 0xD801, size: 0x8, addend: 0x0, symName: __ZNSt3__19allocatorIxEC2B7v160006Ev, symObjAddr: 0xC28, symBinAddr: 0x100002FC4, symSize: 0x2C }
  - { offsetInCU: 0xD82B, offset: 0xD82B, size: 0x8, addend: 0x0, symName: __ZNSt3__116__non_trivial_ifILb1ENS_9allocatorIxEEEC2B7v160006Ev, symObjAddr: 0xC54, symBinAddr: 0x100002FF0, symSize: 0x14 }
  - { offsetInCU: 0xD855, offset: 0xD855, size: 0x8, addend: 0x0, symName: __ZNSt3__128__exception_guard_exceptionsINS_6vectorIxNS_9allocatorIxEEE16__destroy_vectorEEC1B7v160006ES5_, symObjAddr: 0xC68, symBinAddr: 0x100003004, symSize: 0x34 }
  - { offsetInCU: 0xD88D, offset: 0xD88D, size: 0x8, addend: 0x0, symName: __ZNSt3__128__exception_guard_exceptionsINS_6vectorIxNS_9allocatorIxEEE16__destroy_vectorEEC2B7v160006ES5_, symObjAddr: 0xC9C, symBinAddr: 0x100003038, symSize: 0x24 }
  - { offsetInCU: 0xD8C5, offset: 0xD8C5, size: 0x8, addend: 0x0, symName: __ZNSt3__16vectorIxNS_9allocatorIxEEE16__destroy_vectorC2ERS3_, symObjAddr: 0xCC0, symBinAddr: 0x10000305C, symSize: 0x20 }
  - { offsetInCU: 0xD8FE, offset: 0xD8FE, size: 0x8, addend: 0x0, symName: __ZNKSt3__16vectorIxNS_9allocatorIxEEE8max_sizeEv, symObjAddr: 0xCE0, symBinAddr: 0x10000307C, symSize: 0x74 }
  - { offsetInCU: 0xD926, offset: 0xD926, size: 0x8, addend: 0x0, symName: __ZNKSt3__16vectorIxNS_9allocatorIxEEE20__throw_length_errorB7v160006Ev, symObjAddr: 0xD54, symBinAddr: 0x1000030F0, symSize: 0x1C }
  - { offsetInCU: 0xD94C, offset: 0xD94C, size: 0x8, addend: 0x0, symName: __ZNSt3__16vectorIxNS_9allocatorIxEEE7__allocB7v160006Ev, symObjAddr: 0xDB0, symBinAddr: 0x10000314C, symSize: 0x28 }
  - { offsetInCU: 0xD972, offset: 0xD972, size: 0x8, addend: 0x0, symName: __ZNSt3__16vectorIxNS_9allocatorIxEEE9__end_capB7v160006Ev, symObjAddr: 0xDD8, symBinAddr: 0x100003174, symSize: 0x28 }
  - { offsetInCU: 0xD998, offset: 0xD998, size: 0x8, addend: 0x0, symName: __ZNKSt3__16vectorIxNS_9allocatorIxEEE14__annotate_newB7v160006Em, symObjAddr: 0xE00, symBinAddr: 0x10000319C, symSize: 0xAC }
  - { offsetInCU: 0xD9D7, offset: 0xD9D7, size: 0x8, addend: 0x0, symName: __ZNSt3__116allocator_traitsINS_9allocatorIxEEE8max_sizeB7v160006IS2_vEEmRKS2_, symObjAddr: 0xED8, symBinAddr: 0x100003274, symSize: 0x24 }
  - { offsetInCU: 0xDA05, offset: 0xDA05, size: 0x8, addend: 0x0, symName: __ZNKSt3__16vectorIxNS_9allocatorIxEEE7__allocB7v160006Ev, symObjAddr: 0xEFC, symBinAddr: 0x100003298, symSize: 0x28 }
  - { offsetInCU: 0xDA2B, offset: 0xDA2B, size: 0x8, addend: 0x0, symName: __ZNSt3__114numeric_limitsIlE3maxB7v160006Ev, symObjAddr: 0xF24, symBinAddr: 0x1000032C0, symSize: 0x14 }
  - { offsetInCU: 0xDA49, offset: 0xDA49, size: 0x8, addend: 0x0, symName: __ZNKSt3__16__lessImmEclB7v160006ERKmS3_, symObjAddr: 0xF8C, symBinAddr: 0x100003328, symSize: 0x34 }
  - { offsetInCU: 0xDA8B, offset: 0xDA8B, size: 0x8, addend: 0x0, symName: __ZNKSt3__19allocatorIxE8max_sizeB7v160006Ev, symObjAddr: 0xFC0, symBinAddr: 0x10000335C, symSize: 0x14 }
  - { offsetInCU: 0xDAB1, offset: 0xDAB1, size: 0x8, addend: 0x0, symName: __ZNKSt3__117__compressed_pairIPxNS_9allocatorIxEEE6secondB7v160006Ev, symObjAddr: 0xFD4, symBinAddr: 0x100003370, symSize: 0x24 }
  - { offsetInCU: 0xDAD7, offset: 0xDAD7, size: 0x8, addend: 0x0, symName: __ZNKSt3__122__compressed_pair_elemINS_9allocatorIxEELi1ELb1EE5__getB7v160006Ev, symObjAddr: 0xFF8, symBinAddr: 0x100003394, symSize: 0x14 }
  - { offsetInCU: 0xDAFD, offset: 0xDAFD, size: 0x8, addend: 0x0, symName: __ZNSt3__123__libcpp_numeric_limitsIlLb1EE3maxB7v160006Ev, symObjAddr: 0x100C, symBinAddr: 0x1000033A8, symSize: 0x8 }
  - { offsetInCU: 0xDB11, offset: 0xDB11, size: 0x8, addend: 0x0, symName: __ZNSt12length_errorC1B7v160006EPKc, symObjAddr: 0x1078, symBinAddr: 0x100003414, symSize: 0x34 }
  - { offsetInCU: 0xDB49, offset: 0xDB49, size: 0x8, addend: 0x0, symName: __ZNSt12length_errorC2B7v160006EPKc, symObjAddr: 0x10AC, symBinAddr: 0x100003448, symSize: 0x4C }
  - { offsetInCU: 0xDB81, offset: 0xDB81, size: 0x8, addend: 0x0, symName: __ZNSt3__19allocatorIxE8allocateB7v160006Em, symObjAddr: 0x10F8, symBinAddr: 0x100003494, symSize: 0x84 }
  - { offsetInCU: 0xDBB5, offset: 0xDBB5, size: 0x8, addend: 0x0, symName: __ZNSt3__117__compressed_pairIPxNS_9allocatorIxEEE6secondB7v160006Ev, symObjAddr: 0x1208, symBinAddr: 0x1000035A4, symSize: 0x24 }
  - { offsetInCU: 0xDBDB, offset: 0xDBDB, size: 0x8, addend: 0x0, symName: __ZNSt3__122__compressed_pair_elemINS_9allocatorIxEELi1ELb1EE5__getB7v160006Ev, symObjAddr: 0x122C, symBinAddr: 0x1000035C8, symSize: 0x14 }
  - { offsetInCU: 0xDC01, offset: 0xDC01, size: 0x8, addend: 0x0, symName: __ZNSt3__117__compressed_pairIPxNS_9allocatorIxEEE5firstB7v160006Ev, symObjAddr: 0x1240, symBinAddr: 0x1000035DC, symSize: 0x24 }
  - { offsetInCU: 0xDC27, offset: 0xDC27, size: 0x8, addend: 0x0, symName: __ZNSt3__122__compressed_pair_elemIPxLi0ELb0EE5__getB7v160006Ev, symObjAddr: 0x1264, symBinAddr: 0x100003600, symSize: 0x14 }
  - { offsetInCU: 0xDC4D, offset: 0xDC4D, size: 0x8, addend: 0x0, symName: __ZNKSt3__16vectorIxNS_9allocatorIxEEE31__annotate_contiguous_containerB7v160006EPKvS5_S5_S5_, symObjAddr: 0x1278, symBinAddr: 0x100003614, symSize: 0x20 }
  - { offsetInCU: 0xDCA3, offset: 0xDCA3, size: 0x8, addend: 0x0, symName: __ZNKSt3__16vectorIxNS_9allocatorIxEEE4dataB7v160006Ev, symObjAddr: 0x1298, symBinAddr: 0x100003634, symSize: 0x28 }
  - { offsetInCU: 0xDCC9, offset: 0xDCC9, size: 0x8, addend: 0x0, symName: __ZNKSt3__16vectorIxNS_9allocatorIxEEE8capacityB7v160006Ev, symObjAddr: 0x12C0, symBinAddr: 0x10000365C, symSize: 0x40 }
  - { offsetInCU: 0xDCEF, offset: 0xDCEF, size: 0x8, addend: 0x0, symName: __ZNKSt3__16vectorIxNS_9allocatorIxEEE9__end_capB7v160006Ev, symObjAddr: 0x1314, symBinAddr: 0x1000036B0, symSize: 0x28 }
  - { offsetInCU: 0xDD15, offset: 0xDD15, size: 0x8, addend: 0x0, symName: __ZNKSt3__117__compressed_pairIPxNS_9allocatorIxEEE5firstB7v160006Ev, symObjAddr: 0x133C, symBinAddr: 0x1000036D8, symSize: 0x24 }
  - { offsetInCU: 0xDD3B, offset: 0xDD3B, size: 0x8, addend: 0x0, symName: __ZNKSt3__122__compressed_pair_elemIPxLi0ELb0EE5__getB7v160006Ev, symObjAddr: 0x1360, symBinAddr: 0x1000036FC, symSize: 0x14 }
  - { offsetInCU: 0xDD7A, offset: 0xDD7A, size: 0x8, addend: 0x0, symName: __ZNSt3__16vectorIxNS_9allocatorIxEEE21_ConstructTransactionC1B7v160006ERS3_m, symObjAddr: 0x1374, symBinAddr: 0x100003710, symSize: 0x3C }
  - { offsetInCU: 0xDDC2, offset: 0xDDC2, size: 0x8, addend: 0x0, symName: __ZNSt3__116allocator_traitsINS_9allocatorIxEEE9constructB7v160006IxJEvEEvRS2_PT_DpOT0_, symObjAddr: 0x13B0, symBinAddr: 0x10000374C, symSize: 0x2C }
  - { offsetInCU: 0xDE04, offset: 0xDE04, size: 0x8, addend: 0x0, symName: __ZNSt3__16vectorIxNS_9allocatorIxEEE21_ConstructTransactionD1B7v160006Ev, symObjAddr: 0x13DC, symBinAddr: 0x100003778, symSize: 0x2C }
  - { offsetInCU: 0xDE2E, offset: 0xDE2E, size: 0x8, addend: 0x0, symName: __ZNSt3__16vectorIxNS_9allocatorIxEEE21_ConstructTransactionC2B7v160006ERS3_m, symObjAddr: 0x1408, symBinAddr: 0x1000037A4, symSize: 0x44 }
  - { offsetInCU: 0xDE76, offset: 0xDE76, size: 0x8, addend: 0x0, symName: __ZNSt3__19allocatorIxE9constructB7v160006IxJEEEvPT_DpOT0_, symObjAddr: 0x144C, symBinAddr: 0x1000037E8, symSize: 0x1C }
  - { offsetInCU: 0xDEB8, offset: 0xDEB8, size: 0x8, addend: 0x0, symName: __ZNSt3__16vectorIxNS_9allocatorIxEEE21_ConstructTransactionD2B7v160006Ev, symObjAddr: 0x1468, symBinAddr: 0x100003804, symSize: 0x20 }
  - { offsetInCU: 0xDEE2, offset: 0xDEE2, size: 0x8, addend: 0x0, symName: __ZNSt3__128__exception_guard_exceptionsINS_6vectorIxNS_9allocatorIxEEE16__destroy_vectorEED2B7v160006Ev, symObjAddr: 0x1488, symBinAddr: 0x100003824, symSize: 0x48 }
  - { offsetInCU: 0xDF0C, offset: 0xDF0C, size: 0x8, addend: 0x0, symName: __ZNSt3__16vectorIxNS_9allocatorIxEEE16__destroy_vectorclB7v160006Ev, symObjAddr: 0x14D0, symBinAddr: 0x10000386C, symSize: 0x9C }
  - { offsetInCU: 0xDF32, offset: 0xDF32, size: 0x8, addend: 0x0, symName: __ZNKSt3__16vectorIxNS_9allocatorIxEEE17__annotate_deleteB7v160006Ev, symObjAddr: 0x156C, symBinAddr: 0x100003908, symSize: 0xB8 }
  - { offsetInCU: 0xDF58, offset: 0xDF58, size: 0x8, addend: 0x0, symName: __ZNSt3__16vectorIxNS_9allocatorIxEEE7__clearB7v160006Ev, symObjAddr: 0x1634, symBinAddr: 0x1000039D0, symSize: 0x28 }
  - { offsetInCU: 0xDF7E, offset: 0xDF7E, size: 0x8, addend: 0x0, symName: __ZNSt3__116allocator_traitsINS_9allocatorIxEEE10deallocateB7v160006ERS2_Pxm, symObjAddr: 0x165C, symBinAddr: 0x1000039F8, symSize: 0x34 }
  - { offsetInCU: 0xDFC0, offset: 0xDFC0, size: 0x8, addend: 0x0, symName: __ZNKSt3__16vectorIxNS_9allocatorIxEEE4sizeB7v160006Ev, symObjAddr: 0x1690, symBinAddr: 0x100003A2C, symSize: 0x28 }
  - { offsetInCU: 0xDFE6, offset: 0xDFE6, size: 0x8, addend: 0x0, symName: __ZNSt3__16vectorIxNS_9allocatorIxEEE22__base_destruct_at_endB7v160006EPx, symObjAddr: 0x16B8, symBinAddr: 0x100003A54, symSize: 0xA0 }
  - { offsetInCU: 0xE02A, offset: 0xE02A, size: 0x8, addend: 0x0, symName: __ZNSt3__116allocator_traitsINS_9allocatorIxEEE7destroyB7v160006IxvEEvRS2_PT_, symObjAddr: 0x1758, symBinAddr: 0x100003AF4, symSize: 0x2C }
  - { offsetInCU: 0xE067, offset: 0xE067, size: 0x8, addend: 0x0, symName: __ZNSt3__19allocatorIxE7destroyB7v160006EPx, symObjAddr: 0x1784, symBinAddr: 0x100003B20, symSize: 0x14 }
  - { offsetInCU: 0xE09B, offset: 0xE09B, size: 0x8, addend: 0x0, symName: __ZNSt3__19allocatorIxE10deallocateB7v160006EPxm, symObjAddr: 0x1798, symBinAddr: 0x100003B34, symSize: 0x70 }
  - { offsetInCU: 0xE0DD, offset: 0xE0DD, size: 0x8, addend: 0x0, symName: __ZNSt3__16vectorIxNS_9allocatorIxEEED2B7v160006Ev, symObjAddr: 0x1884, symBinAddr: 0x100003C20, symSize: 0x3C }
  - { offsetInCU: 0xE107, offset: 0xE107, size: 0x8, addend: 0x0, symName: __ZNSt3__16vectorIxNS_9allocatorIxEEE11__make_iterB7v160006EPx, symObjAddr: 0x18C0, symBinAddr: 0x100003C5C, symSize: 0x34 }
  - { offsetInCU: 0xE13C, offset: 0xE13C, size: 0x8, addend: 0x0, symName: __ZNSt3__111__wrap_iterIPxEC1B7v160006EPKvS1_, symObjAddr: 0x18F4, symBinAddr: 0x100003C90, symSize: 0x3C }
  - { offsetInCU: 0xE182, offset: 0xE182, size: 0x8, addend: 0x0, symName: __ZNSt3__111__wrap_iterIPxEC2B7v160006EPKvS1_, symObjAddr: 0x1930, symBinAddr: 0x100003CCC, symSize: 0x24 }
  - { offsetInCU: 0xE1C8, offset: 0xE1C8, size: 0x8, addend: 0x0, symName: __ZNSt3__18_IterOpsINS_17_ClassicAlgPolicyEE4nextB7v160006INS_11__wrap_iterIPxEEEET_S7_S7_, symObjAddr: 0x1BBC, symBinAddr: 0x100003F58, symSize: 0x20 }
  - { offsetInCU: 0xE1FF, offset: 0xE1FF, size: 0x8, addend: 0x0, symName: __ZNKSt3__111__wrap_iterIPxE4baseB7v160006Ev, symObjAddr: 0x1D44, symBinAddr: 0x1000040E0, symSize: 0x18 }
  - { offsetInCU: 0xE22F, offset: 0xE22F, size: 0x8, addend: 0x0, symName: __ZNKSt3__16__lessIxxEclB7v160006ERKxS3_, symObjAddr: 0x1EAC, symBinAddr: 0x100004248, symSize: 0x34 }
  - { offsetInCU: 0xE271, offset: 0xE271, size: 0x8, addend: 0x0, symName: __ZNKSt3__111__wrap_iterIPxEdeB7v160006Ev, symObjAddr: 0x1EE0, symBinAddr: 0x10000427C, symSize: 0x18 }
  - { offsetInCU: 0xE297, offset: 0xE297, size: 0x8, addend: 0x0, symName: __ZNSt3__18_IterOpsINS_17_ClassicAlgPolicyEE9iter_swapB7v160006IRNS_11__wrap_iterIPxEES7_EEvOT_OT0_, symObjAddr: 0x1EF8, symBinAddr: 0x100004294, symSize: 0x44 }
  - { offsetInCU: 0xE2DA, offset: 0xE2DA, size: 0x8, addend: 0x0, symName: __ZNSt3__111__wrap_iterIPxEppB7v160006Ev, symObjAddr: 0x2218, symBinAddr: 0x1000045B4, symSize: 0x20 }
  - { offsetInCU: 0xE300, offset: 0xE300, size: 0x8, addend: 0x0, symName: __ZNKSt3__111__wrap_iterIPxEplB7v160006El, symObjAddr: 0x22D0, symBinAddr: 0x10000466C, symSize: 0x3C }
  - { offsetInCU: 0xE342, offset: 0xE342, size: 0x8, addend: 0x0, symName: __ZNSt3__111__wrap_iterIPxEpLB7v160006El, symObjAddr: 0x230C, symBinAddr: 0x1000046A8, symSize: 0x28 }
  - { offsetInCU: 0xE37B, offset: 0xE37B, size: 0x8, addend: 0x0, symName: __ZNSt3__18_IterOpsINS_17_ClassicAlgPolicyEE11__iter_moveB7v160006IRNS_11__wrap_iterIPxEEEENS_9enable_ifIXsr12is_referenceIDTdeclsr3stdE7declvalIRT_EEEEE5valueEDTclsr3stdE4movedeclsr3stdE7declvalISA_EEEEE4typeEOS9_, symObjAddr: 0x23C0, symBinAddr: 0x10000475C, symSize: 0x28 }
  - { offsetInCU: 0xE3A7, offset: 0xE3A7, size: 0x8, addend: 0x0, symName: __ZNSt3__18_IterOpsINS_17_ClassicAlgPolicyEE25__validate_iter_referenceB7v160006IRNS_11__wrap_iterIPxEEEEvv, symObjAddr: 0x23E8, symBinAddr: 0x100004784, symSize: 0x4 }
  - { offsetInCU: 0xE3C5, offset: 0xE3C5, size: 0x8, addend: 0x0, symName: __ZNSt3__111__wrap_iterIPxEmmB7v160006Ev, symObjAddr: 0x2530, symBinAddr: 0x1000048CC, symSize: 0x20 }
  - { offsetInCU: 0xE3EB, offset: 0xE3EB, size: 0x8, addend: 0x0, symName: __ZNSt3__118__unwrap_iter_implINS_11__wrap_iterIPxEELb1EE8__unwrapB7v160006ES3_, symObjAddr: 0x2804, symBinAddr: 0x100004BA0, symSize: 0x28 }
  - { offsetInCU: 0xE418, offset: 0xE418, size: 0x8, addend: 0x0, symName: __ZNSt3__119__to_address_helperINS_11__wrap_iterIPxEEvE6__callB7v160006ERKS3_, symObjAddr: 0x2850, symBinAddr: 0x100004BEC, symSize: 0x30 }
  - { offsetInCU: 0xE43B, offset: 0xE43B, size: 0x8, addend: 0x0, symName: __ZNSt3__114pointer_traitsINS_11__wrap_iterIPxEEE10to_addressB7v160006ES3_, symObjAddr: 0x2880, symBinAddr: 0x100004C1C, symSize: 0x2C }
  - { offsetInCU: 0xE45F, offset: 0xE45F, size: 0x8, addend: 0x0, symName: __ZNSt3__113unordered_mapIxxNS_4hashIxEENS_8equal_toIxEENS_9allocatorINS_4pairIKxxEEEEEC2B7v160006Ev, symObjAddr: 0x28AC, symBinAddr: 0x100004C48, symSize: 0x64 }
  - { offsetInCU: 0xE489, offset: 0xE489, size: 0x8, addend: 0x0, symName: __ZNSt3__112__hash_tableINS_17__hash_value_typeIxxEENS_22__unordered_map_hasherIxS2_NS_4hashIxEENS_8equal_toIxEELb1EEENS_21__unordered_map_equalIxS2_S7_S5_Lb1EEENS_9allocatorIS2_EEEC1Ev, symObjAddr: 0x2910, symBinAddr: 0x100004CAC, symSize: 0x2C }
  - { offsetInCU: 0xE4B5, offset: 0xE4B5, size: 0x8, addend: 0x0, symName: __ZNSt3__112__hash_tableINS_17__hash_value_typeIxxEENS_22__unordered_map_hasherIxS2_NS_4hashIxEENS_8equal_toIxEELb1EEENS_21__unordered_map_equalIxS2_S7_S5_Lb1EEENS_9allocatorIS2_EEED1Ev, symObjAddr: 0x294C, symBinAddr: 0x100004CE8, symSize: 0x2C }
  - { offsetInCU: 0xE4E1, offset: 0xE4E1, size: 0x8, addend: 0x0, symName: __ZNSt3__112__hash_tableINS_17__hash_value_typeIxxEENS_22__unordered_map_hasherIxS2_NS_4hashIxEENS_8equal_toIxEELb1EEENS_21__unordered_map_equalIxS2_S7_S5_Lb1EEENS_9allocatorIS2_EEEC2Ev, symObjAddr: 0x2978, symBinAddr: 0x100004D14, symSize: 0xA4 }
  - { offsetInCU: 0xE50D, offset: 0xE50D, size: 0x8, addend: 0x0, symName: __ZNSt3__110unique_ptrIA_PNS_16__hash_node_baseIPNS_11__hash_nodeINS_17__hash_value_typeIxxEEPvEEEENS_25__bucket_list_deallocatorINS_9allocatorIS9_EEEEEC1B7v160006ILb1EvEEv, symObjAddr: 0x2A1C, symBinAddr: 0x100004DB8, symSize: 0x2C }
  - { offsetInCU: 0xE542, offset: 0xE542, size: 0x8, addend: 0x0, symName: __ZNSt3__117__compressed_pairINS_16__hash_node_baseIPNS_11__hash_nodeINS_17__hash_value_typeIxxEEPvEEEENS_9allocatorIS6_EEEC1B7v160006ILb1EvEEv, symObjAddr: 0x2A48, symBinAddr: 0x100004DE4, symSize: 0x2C }
  - { offsetInCU: 0xE57C, offset: 0xE57C, size: 0x8, addend: 0x0, symName: __ZNSt3__117__compressed_pairImNS_22__unordered_map_hasherIxNS_17__hash_value_typeIxxEENS_4hashIxEENS_8equal_toIxEELb1EEEEC1B7v160006IiNS_18__default_init_tagEEEOT_OT0_, symObjAddr: 0x2A74, symBinAddr: 0x100004E10, symSize: 0x3C }
  - { offsetInCU: 0xE5D9, offset: 0xE5D9, size: 0x8, addend: 0x0, symName: __ZNSt3__117__compressed_pairIfNS_21__unordered_map_equalIxNS_17__hash_value_typeIxxEENS_8equal_toIxEENS_4hashIxEELb1EEEEC1B7v160006IfNS_18__default_init_tagEEEOT_OT0_, symObjAddr: 0x2AB0, symBinAddr: 0x100004E4C, symSize: 0x3C }
  - { offsetInCU: 0xE631, offset: 0xE631, size: 0x8, addend: 0x0, symName: __ZNSt3__110unique_ptrIA_PNS_16__hash_node_baseIPNS_11__hash_nodeINS_17__hash_value_typeIxxEEPvEEEENS_25__bucket_list_deallocatorINS_9allocatorIS9_EEEEED1B7v160006Ev, symObjAddr: 0x2AEC, symBinAddr: 0x100004E88, symSize: 0x2C }
  - { offsetInCU: 0xE65B, offset: 0xE65B, size: 0x8, addend: 0x0, symName: __ZNSt3__110unique_ptrIA_PNS_16__hash_node_baseIPNS_11__hash_nodeINS_17__hash_value_typeIxxEEPvEEEENS_25__bucket_list_deallocatorINS_9allocatorIS9_EEEEEC2B7v160006ILb1EvEEv, symObjAddr: 0x2B18, symBinAddr: 0x100004EB4, symSize: 0x50 }
  - { offsetInCU: 0xE695, offset: 0xE695, size: 0x8, addend: 0x0, symName: __ZNSt3__117__compressed_pairIPPNS_16__hash_node_baseIPNS_11__hash_nodeINS_17__hash_value_typeIxxEEPvEEEENS_25__bucket_list_deallocatorINS_9allocatorIS9_EEEEEC1B7v160006INS_16__value_init_tagESH_EEOT_OT0_, symObjAddr: 0x2B68, symBinAddr: 0x100004F04, symSize: 0x3C }
  - { offsetInCU: 0xE6ED, offset: 0xE6ED, size: 0x8, addend: 0x0, symName: __ZNSt3__117__compressed_pairIPPNS_16__hash_node_baseIPNS_11__hash_nodeINS_17__hash_value_typeIxxEEPvEEEENS_25__bucket_list_deallocatorINS_9allocatorIS9_EEEEEC2B7v160006INS_16__value_init_tagESH_EEOT_OT0_, symObjAddr: 0x2BA4, symBinAddr: 0x100004F40, symSize: 0x40 }
  - { offsetInCU: 0xE745, offset: 0xE745, size: 0x8, addend: 0x0, symName: __ZNSt3__122__compressed_pair_elemIPPNS_16__hash_node_baseIPNS_11__hash_nodeINS_17__hash_value_typeIxxEEPvEEEELi0ELb0EEC2B7v160006ENS_16__value_init_tagE, symObjAddr: 0x2BE4, symBinAddr: 0x100004F80, symSize: 0x18 }
  - { offsetInCU: 0xE77A, offset: 0xE77A, size: 0x8, addend: 0x0, symName: __ZNSt3__122__compressed_pair_elemINS_25__bucket_list_deallocatorINS_9allocatorIPNS_16__hash_node_baseIPNS_11__hash_nodeINS_17__hash_value_typeIxxEEPvEEEEEEEELi1ELb0EEC2B7v160006ENS_16__value_init_tagE, symObjAddr: 0x2BFC, symBinAddr: 0x100004F98, symSize: 0x2C }
  - { offsetInCU: 0xE7AF, offset: 0xE7AF, size: 0x8, addend: 0x0, symName: __ZNSt3__125__bucket_list_deallocatorINS_9allocatorIPNS_16__hash_node_baseIPNS_11__hash_nodeINS_17__hash_value_typeIxxEEPvEEEEEEEC1B7v160006Ev, symObjAddr: 0x2C28, symBinAddr: 0x100004FC4, symSize: 0x2C }
  - { offsetInCU: 0xE7D9, offset: 0xE7D9, size: 0x8, addend: 0x0, symName: __ZNSt3__125__bucket_list_deallocatorINS_9allocatorIPNS_16__hash_node_baseIPNS_11__hash_nodeINS_17__hash_value_typeIxxEEPvEEEEEEEC2B7v160006Ev, symObjAddr: 0x2C54, symBinAddr: 0x100004FF0, symSize: 0x38 }
  - { offsetInCU: 0xE803, offset: 0xE803, size: 0x8, addend: 0x0, symName: __ZNSt3__117__compressed_pairImNS_9allocatorIPNS_16__hash_node_baseIPNS_11__hash_nodeINS_17__hash_value_typeIxxEEPvEEEEEEEC1B7v160006IiNS_18__default_init_tagEEEOT_OT0_, symObjAddr: 0x2C8C, symBinAddr: 0x100005028, symSize: 0x3C }
  - { offsetInCU: 0xE85B, offset: 0xE85B, size: 0x8, addend: 0x0, symName: __ZNSt3__117__compressed_pairImNS_9allocatorIPNS_16__hash_node_baseIPNS_11__hash_nodeINS_17__hash_value_typeIxxEEPvEEEEEEEC2B7v160006IiNS_18__default_init_tagEEEOT_OT0_, symObjAddr: 0x2CC8, symBinAddr: 0x100005064, symSize: 0x40 }
  - { offsetInCU: 0xE8B3, offset: 0xE8B3, size: 0x8, addend: 0x0, symName: __ZNSt3__122__compressed_pair_elemImLi0ELb0EEC2B7v160006IivEEOT_, symObjAddr: 0x2D08, symBinAddr: 0x1000050A4, symSize: 0x24 }
  - { offsetInCU: 0xE8F5, offset: 0xE8F5, size: 0x8, addend: 0x0, symName: __ZNSt3__122__compressed_pair_elemINS_9allocatorIPNS_16__hash_node_baseIPNS_11__hash_nodeINS_17__hash_value_typeIxxEEPvEEEEEELi1ELb1EEC2B7v160006ENS_18__default_init_tagE, symObjAddr: 0x2D2C, symBinAddr: 0x1000050C8, symSize: 0x2C }
  - { offsetInCU: 0xE92A, offset: 0xE92A, size: 0x8, addend: 0x0, symName: __ZNSt3__19allocatorIPNS_16__hash_node_baseIPNS_11__hash_nodeINS_17__hash_value_typeIxxEEPvEEEEEC2B7v160006Ev, symObjAddr: 0x2D58, symBinAddr: 0x1000050F4, symSize: 0x2C }
  - { offsetInCU: 0xE954, offset: 0xE954, size: 0x8, addend: 0x0, symName: __ZNSt3__116__non_trivial_ifILb1ENS_9allocatorIPNS_16__hash_node_baseIPNS_11__hash_nodeINS_17__hash_value_typeIxxEEPvEEEEEEEC2B7v160006Ev, symObjAddr: 0x2D84, symBinAddr: 0x100005120, symSize: 0x14 }
  - { offsetInCU: 0xE97E, offset: 0xE97E, size: 0x8, addend: 0x0, symName: __ZNSt3__117__compressed_pairINS_16__hash_node_baseIPNS_11__hash_nodeINS_17__hash_value_typeIxxEEPvEEEENS_9allocatorIS6_EEEC2B7v160006ILb1EvEEv, symObjAddr: 0x2D98, symBinAddr: 0x100005134, symSize: 0x34 }
  - { offsetInCU: 0xE9B3, offset: 0xE9B3, size: 0x8, addend: 0x0, symName: __ZNSt3__122__compressed_pair_elemINS_16__hash_node_baseIPNS_11__hash_nodeINS_17__hash_value_typeIxxEEPvEEEELi0ELb0EEC2B7v160006ENS_16__value_init_tagE, symObjAddr: 0x2DCC, symBinAddr: 0x100005168, symSize: 0x2C }
  - { offsetInCU: 0xE9E8, offset: 0xE9E8, size: 0x8, addend: 0x0, symName: __ZNSt3__122__compressed_pair_elemINS_9allocatorINS_11__hash_nodeINS_17__hash_value_typeIxxEEPvEEEELi1ELb1EEC2B7v160006ENS_16__value_init_tagE, symObjAddr: 0x2DF8, symBinAddr: 0x100005194, symSize: 0x2C }
  - { offsetInCU: 0xEA1D, offset: 0xEA1D, size: 0x8, addend: 0x0, symName: __ZNSt3__116__hash_node_baseIPNS_11__hash_nodeINS_17__hash_value_typeIxxEEPvEEEC1B7v160006Ev, symObjAddr: 0x2E24, symBinAddr: 0x1000051C0, symSize: 0x2C }
  - { offsetInCU: 0xEA47, offset: 0xEA47, size: 0x8, addend: 0x0, symName: __ZNSt3__116__hash_node_baseIPNS_11__hash_nodeINS_17__hash_value_typeIxxEEPvEEEC2B7v160006Ev, symObjAddr: 0x2E50, symBinAddr: 0x1000051EC, symSize: 0x18 }
  - { offsetInCU: 0xEA71, offset: 0xEA71, size: 0x8, addend: 0x0, symName: __ZNSt3__19allocatorINS_11__hash_nodeINS_17__hash_value_typeIxxEEPvEEEC2B7v160006Ev, symObjAddr: 0x2E68, symBinAddr: 0x100005204, symSize: 0x2C }
  - { offsetInCU: 0xEA9B, offset: 0xEA9B, size: 0x8, addend: 0x0, symName: __ZNSt3__116__non_trivial_ifILb1ENS_9allocatorINS_11__hash_nodeINS_17__hash_value_typeIxxEEPvEEEEEC2B7v160006Ev, symObjAddr: 0x2E94, symBinAddr: 0x100005230, symSize: 0x14 }
  - { offsetInCU: 0xEAC5, offset: 0xEAC5, size: 0x8, addend: 0x0, symName: __ZNSt3__117__compressed_pairImNS_22__unordered_map_hasherIxNS_17__hash_value_typeIxxEENS_4hashIxEENS_8equal_toIxEELb1EEEEC2B7v160006IiNS_18__default_init_tagEEEOT_OT0_, symObjAddr: 0x2EA8, symBinAddr: 0x100005244, symSize: 0x40 }
  - { offsetInCU: 0xEB1D, offset: 0xEB1D, size: 0x8, addend: 0x0, symName: __ZNSt3__122__compressed_pair_elemINS_22__unordered_map_hasherIxNS_17__hash_value_typeIxxEENS_4hashIxEENS_8equal_toIxEELb1EEELi1ELb1EEC2B7v160006ENS_18__default_init_tagE, symObjAddr: 0x2EE8, symBinAddr: 0x100005284, symSize: 0x2C }
  - { offsetInCU: 0xEB52, offset: 0xEB52, size: 0x8, addend: 0x0, symName: __ZNSt3__122__unordered_map_hasherIxNS_17__hash_value_typeIxxEENS_4hashIxEENS_8equal_toIxEELb1EEC2B7v160006Ev, symObjAddr: 0x2F14, symBinAddr: 0x1000052B0, symSize: 0x14 }
  - { offsetInCU: 0xEB7C, offset: 0xEB7C, size: 0x8, addend: 0x0, symName: __ZNSt3__117__compressed_pairIfNS_21__unordered_map_equalIxNS_17__hash_value_typeIxxEENS_8equal_toIxEENS_4hashIxEELb1EEEEC2B7v160006IfNS_18__default_init_tagEEEOT_OT0_, symObjAddr: 0x2F28, symBinAddr: 0x1000052C4, symSize: 0x40 }
  - { offsetInCU: 0xEBD4, offset: 0xEBD4, size: 0x8, addend: 0x0, symName: __ZNSt3__122__compressed_pair_elemIfLi0ELb0EEC2B7v160006IfvEEOT_, symObjAddr: 0x2F68, symBinAddr: 0x100005304, symSize: 0x24 }
  - { offsetInCU: 0xEC16, offset: 0xEC16, size: 0x8, addend: 0x0, symName: __ZNSt3__122__compressed_pair_elemINS_21__unordered_map_equalIxNS_17__hash_value_typeIxxEENS_8equal_toIxEENS_4hashIxEELb1EEELi1ELb1EEC2B7v160006ENS_18__default_init_tagE, symObjAddr: 0x2F8C, symBinAddr: 0x100005328, symSize: 0x2C }
  - { offsetInCU: 0xEC4B, offset: 0xEC4B, size: 0x8, addend: 0x0, symName: __ZNSt3__121__unordered_map_equalIxNS_17__hash_value_typeIxxEENS_8equal_toIxEENS_4hashIxEELb1EEC2B7v160006Ev, symObjAddr: 0x2FB8, symBinAddr: 0x100005354, symSize: 0x14 }
  - { offsetInCU: 0xEC75, offset: 0xEC75, size: 0x8, addend: 0x0, symName: __ZNSt3__110unique_ptrIA_PNS_16__hash_node_baseIPNS_11__hash_nodeINS_17__hash_value_typeIxxEEPvEEEENS_25__bucket_list_deallocatorINS_9allocatorIS9_EEEEED2B7v160006Ev, symObjAddr: 0x2FCC, symBinAddr: 0x100005368, symSize: 0x30 }
  - { offsetInCU: 0xEC9F, offset: 0xEC9F, size: 0x8, addend: 0x0, symName: __ZNSt3__110unique_ptrIA_PNS_16__hash_node_baseIPNS_11__hash_nodeINS_17__hash_value_typeIxxEEPvEEEENS_25__bucket_list_deallocatorINS_9allocatorIS9_EEEEE5resetB7v160006EDn, symObjAddr: 0x2FFC, symBinAddr: 0x100005398, symSize: 0x6C }
  - { offsetInCU: 0xECE0, offset: 0xECE0, size: 0x8, addend: 0x0, symName: __ZNSt3__117__compressed_pairIPPNS_16__hash_node_baseIPNS_11__hash_nodeINS_17__hash_value_typeIxxEEPvEEEENS_25__bucket_list_deallocatorINS_9allocatorIS9_EEEEE5firstB7v160006Ev, symObjAddr: 0x3068, symBinAddr: 0x100005404, symSize: 0x24 }
  - { offsetInCU: 0xED06, offset: 0xED06, size: 0x8, addend: 0x0, symName: __ZNSt3__117__compressed_pairIPPNS_16__hash_node_baseIPNS_11__hash_nodeINS_17__hash_value_typeIxxEEPvEEEENS_25__bucket_list_deallocatorINS_9allocatorIS9_EEEEE6secondB7v160006Ev, symObjAddr: 0x308C, symBinAddr: 0x100005428, symSize: 0x28 }
  - { offsetInCU: 0xED2C, offset: 0xED2C, size: 0x8, addend: 0x0, symName: __ZNSt3__125__bucket_list_deallocatorINS_9allocatorIPNS_16__hash_node_baseIPNS_11__hash_nodeINS_17__hash_value_typeIxxEEPvEEEEEEEclB7v160006EPSA_, symObjAddr: 0x30B4, symBinAddr: 0x100005450, symSize: 0x58 }
  - { offsetInCU: 0xED61, offset: 0xED61, size: 0x8, addend: 0x0, symName: __ZNSt3__122__compressed_pair_elemIPPNS_16__hash_node_baseIPNS_11__hash_nodeINS_17__hash_value_typeIxxEEPvEEEELi0ELb0EE5__getB7v160006Ev, symObjAddr: 0x310C, symBinAddr: 0x1000054A8, symSize: 0x14 }
  - { offsetInCU: 0xED87, offset: 0xED87, size: 0x8, addend: 0x0, symName: __ZNSt3__122__compressed_pair_elemINS_25__bucket_list_deallocatorINS_9allocatorIPNS_16__hash_node_baseIPNS_11__hash_nodeINS_17__hash_value_typeIxxEEPvEEEEEEEELi1ELb0EE5__getB7v160006Ev, symObjAddr: 0x3120, symBinAddr: 0x1000054BC, symSize: 0x14 }
  - { offsetInCU: 0xEDAD, offset: 0xEDAD, size: 0x8, addend: 0x0, symName: __ZNSt3__116allocator_traitsINS_9allocatorIPNS_16__hash_node_baseIPNS_11__hash_nodeINS_17__hash_value_typeIxxEEPvEEEEEEE10deallocateB7v160006ERSB_PSA_m, symObjAddr: 0x3134, symBinAddr: 0x1000054D0, symSize: 0x34 }
  - { offsetInCU: 0xEDEF, offset: 0xEDEF, size: 0x8, addend: 0x0, symName: __ZNSt3__125__bucket_list_deallocatorINS_9allocatorIPNS_16__hash_node_baseIPNS_11__hash_nodeINS_17__hash_value_typeIxxEEPvEEEEEEE7__allocB7v160006Ev, symObjAddr: 0x3168, symBinAddr: 0x100005504, symSize: 0x24 }
  - { offsetInCU: 0xEE15, offset: 0xEE15, size: 0x8, addend: 0x0, symName: __ZNSt3__125__bucket_list_deallocatorINS_9allocatorIPNS_16__hash_node_baseIPNS_11__hash_nodeINS_17__hash_value_typeIxxEEPvEEEEEEE4sizeB7v160006Ev, symObjAddr: 0x318C, symBinAddr: 0x100005528, symSize: 0x24 }
  - { offsetInCU: 0xEE3B, offset: 0xEE3B, size: 0x8, addend: 0x0, symName: __ZNSt3__19allocatorIPNS_16__hash_node_baseIPNS_11__hash_nodeINS_17__hash_value_typeIxxEEPvEEEEE10deallocateB7v160006EPS9_m, symObjAddr: 0x31B0, symBinAddr: 0x10000554C, symSize: 0x70 }
  - { offsetInCU: 0xEE7D, offset: 0xEE7D, size: 0x8, addend: 0x0, symName: __ZNSt3__117__compressed_pairImNS_9allocatorIPNS_16__hash_node_baseIPNS_11__hash_nodeINS_17__hash_value_typeIxxEEPvEEEEEEE6secondB7v160006Ev, symObjAddr: 0x3220, symBinAddr: 0x1000055BC, symSize: 0x24 }
  - { offsetInCU: 0xEEA3, offset: 0xEEA3, size: 0x8, addend: 0x0, symName: __ZNSt3__122__compressed_pair_elemINS_9allocatorIPNS_16__hash_node_baseIPNS_11__hash_nodeINS_17__hash_value_typeIxxEEPvEEEEEELi1ELb1EE5__getB7v160006Ev, symObjAddr: 0x3244, symBinAddr: 0x1000055E0, symSize: 0x14 }
  - { offsetInCU: 0xEEC9, offset: 0xEEC9, size: 0x8, addend: 0x0, symName: __ZNSt3__117__compressed_pairImNS_9allocatorIPNS_16__hash_node_baseIPNS_11__hash_nodeINS_17__hash_value_typeIxxEEPvEEEEEEE5firstB7v160006Ev, symObjAddr: 0x3258, symBinAddr: 0x1000055F4, symSize: 0x24 }
  - { offsetInCU: 0xEEEF, offset: 0xEEEF, size: 0x8, addend: 0x0, symName: __ZNSt3__122__compressed_pair_elemImLi0ELb0EE5__getB7v160006Ev, symObjAddr: 0x327C, symBinAddr: 0x100005618, symSize: 0x14 }
  - { offsetInCU: 0xEF15, offset: 0xEF15, size: 0x8, addend: 0x0, symName: __ZNSt3__112__hash_tableINS_17__hash_value_typeIxxEENS_22__unordered_map_hasherIxS2_NS_4hashIxEENS_8equal_toIxEELb1EEENS_21__unordered_map_equalIxS2_S7_S5_Lb1EEENS_9allocatorIS2_EEED2Ev, symObjAddr: 0x3290, symBinAddr: 0x10000562C, symSize: 0x80 }
  - { offsetInCU: 0xEF41, offset: 0xEF41, size: 0x8, addend: 0x0, symName: __ZNSt3__112__hash_tableINS_17__hash_value_typeIxxEENS_22__unordered_map_hasherIxS2_NS_4hashIxEENS_8equal_toIxEELb1EEENS_21__unordered_map_equalIxS2_S7_S5_Lb1EEENS_9allocatorIS2_EEE17__deallocate_nodeEPNS_16__hash_node_baseIPNS_11__hash_nodeIS2_PvEEEE, symObjAddr: 0x3310, symBinAddr: 0x1000056AC, symSize: 0xBC }
  - { offsetInCU: 0xEFAC, offset: 0xEFAC, size: 0x8, addend: 0x0, symName: __ZNSt3__117__compressed_pairINS_16__hash_node_baseIPNS_11__hash_nodeINS_17__hash_value_typeIxxEEPvEEEENS_9allocatorIS6_EEE5firstB7v160006Ev, symObjAddr: 0x33CC, symBinAddr: 0x100005768, symSize: 0x24 }
  - { offsetInCU: 0xEFD2, offset: 0xEFD2, size: 0x8, addend: 0x0, symName: __ZNSt3__112__hash_tableINS_17__hash_value_typeIxxEENS_22__unordered_map_hasherIxS2_NS_4hashIxEENS_8equal_toIxEELb1EEENS_21__unordered_map_equalIxS2_S7_S5_Lb1EEENS_9allocatorIS2_EEE12__node_allocB7v160006Ev, symObjAddr: 0x3400, symBinAddr: 0x10000579C, symSize: 0x28 }
  - { offsetInCU: 0xEFF8, offset: 0xEFF8, size: 0x8, addend: 0x0, symName: __ZNSt3__116__hash_node_baseIPNS_11__hash_nodeINS_17__hash_value_typeIxxEEPvEEE8__upcastB7v160006Ev, symObjAddr: 0x3428, symBinAddr: 0x1000057C4, symSize: 0x24 }
  - { offsetInCU: 0xF01E, offset: 0xF01E, size: 0x8, addend: 0x0, symName: __ZNSt3__116allocator_traitsINS_9allocatorINS_11__hash_nodeINS_17__hash_value_typeIxxEEPvEEEEE7destroyB7v160006INS_4pairIKxxEEvvEEvRS7_PT_, symObjAddr: 0x344C, symBinAddr: 0x1000057E8, symSize: 0x14 }
  - { offsetInCU: 0xF059, offset: 0xF059, size: 0x8, addend: 0x0, symName: __ZNSt3__122__hash_key_value_typesINS_17__hash_value_typeIxxEEE9__get_ptrB7v160006ERS2_, symObjAddr: 0x3460, symBinAddr: 0x1000057FC, symSize: 0x24 }
  - { offsetInCU: 0xF07C, offset: 0xF07C, size: 0x8, addend: 0x0, symName: __ZNSt3__116allocator_traitsINS_9allocatorINS_11__hash_nodeINS_17__hash_value_typeIxxEEPvEEEEE10deallocateB7v160006ERS7_PS6_m, symObjAddr: 0x3484, symBinAddr: 0x100005820, symSize: 0x34 }
  - { offsetInCU: 0xF0BE, offset: 0xF0BE, size: 0x8, addend: 0x0, symName: __ZNSt3__117__compressed_pairINS_16__hash_node_baseIPNS_11__hash_nodeINS_17__hash_value_typeIxxEEPvEEEENS_9allocatorIS6_EEE6secondB7v160006Ev, symObjAddr: 0x34B8, symBinAddr: 0x100005854, symSize: 0x24 }
  - { offsetInCU: 0xF0E4, offset: 0xF0E4, size: 0x8, addend: 0x0, symName: __ZNSt3__122__compressed_pair_elemINS_9allocatorINS_11__hash_nodeINS_17__hash_value_typeIxxEEPvEEEELi1ELb1EE5__getB7v160006Ev, symObjAddr: 0x34DC, symBinAddr: 0x100005878, symSize: 0x14 }
  - { offsetInCU: 0xF10A, offset: 0xF10A, size: 0x8, addend: 0x0, symName: __ZNSt3__114pointer_traitsIPNS_16__hash_node_baseIPNS_11__hash_nodeINS_17__hash_value_typeIxxEEPvEEEEE10pointer_toB7v160006ERS8_, symObjAddr: 0x34F0, symBinAddr: 0x10000588C, symSize: 0x14 }
  - { offsetInCU: 0xF12D, offset: 0xF12D, size: 0x8, addend: 0x0, symName: __ZNSt3__117__hash_value_typeIxxE11__get_valueB7v160006Ev, symObjAddr: 0x3504, symBinAddr: 0x1000058A0, symSize: 0x14 }
  - { offsetInCU: 0xF153, offset: 0xF153, size: 0x8, addend: 0x0, symName: __ZNSt3__19allocatorINS_11__hash_nodeINS_17__hash_value_typeIxxEEPvEEE10deallocateB7v160006EPS5_m, symObjAddr: 0x3518, symBinAddr: 0x1000058B4, symSize: 0x70 }
  - { offsetInCU: 0xF195, offset: 0xF195, size: 0x8, addend: 0x0, symName: __ZNSt3__122__compressed_pair_elemINS_16__hash_node_baseIPNS_11__hash_nodeINS_17__hash_value_typeIxxEEPvEEEELi0ELb0EE5__getB7v160006Ev, symObjAddr: 0x3588, symBinAddr: 0x100005924, symSize: 0x14 }
  - { offsetInCU: 0xF1BB, offset: 0xF1BB, size: 0x8, addend: 0x0, symName: __ZNSt3__113unordered_mapIxxNS_4hashIxEENS_8equal_toIxEENS_9allocatorINS_4pairIKxxEEEEED2B7v160006Ev, symObjAddr: 0x359C, symBinAddr: 0x100005938, symSize: 0x2C }
  - { offsetInCU: 0xF1E5, offset: 0xF1E5, size: 0x8, addend: 0x0, symName: __ZNSt3__113unordered_mapIxxNS_4hashIxEENS_8equal_toIxEENS_9allocatorINS_4pairIKxxEEEEE4findB7v160006ERS7_, symObjAddr: 0x35C8, symBinAddr: 0x100005964, symSize: 0x40 }
  - { offsetInCU: 0xF21A, offset: 0xF21A, size: 0x8, addend: 0x0, symName: __ZNSt3__113unordered_mapIxxNS_4hashIxEENS_8equal_toIxEENS_9allocatorINS_4pairIKxxEEEEE3endB7v160006Ev, symObjAddr: 0x3638, symBinAddr: 0x1000059D4, symSize: 0x38 }
  - { offsetInCU: 0xF240, offset: 0xF240, size: 0x8, addend: 0x0, symName: __ZNKSt3__119__hash_map_iteratorINS_15__hash_iteratorIPNS_11__hash_nodeINS_17__hash_value_typeIxxEEPvEEEEEptB7v160006Ev, symObjAddr: 0x3670, symBinAddr: 0x100005A0C, symSize: 0x2C }
  - { offsetInCU: 0xF266, offset: 0xF266, size: 0x8, addend: 0x0, symName: __ZNSt3__113unordered_mapIxxNS_4hashIxEENS_8equal_toIxEENS_9allocatorINS_4pairIKxxEEEEE25__construct_node_with_keyERS7_, symObjAddr: 0x369C, symBinAddr: 0x100005A38, symSize: 0x144 }
  - { offsetInCU: 0xF2BC, offset: 0xF2BC, size: 0x8, addend: 0x0, symName: __ZNSt3__112__hash_tableINS_17__hash_value_typeIxxEENS_22__unordered_map_hasherIxS2_NS_4hashIxEENS_8equal_toIxEELb1EEENS_21__unordered_map_equalIxS2_S7_S5_Lb1EEENS_9allocatorIS2_EEE20__node_insert_uniqueEPNS_11__hash_nodeIS2_PvEE, symObjAddr: 0x37E0, symBinAddr: 0x100005B7C, symSize: 0xC8 }
  - { offsetInCU: 0xF311, offset: 0xF311, size: 0x8, addend: 0x0, symName: __ZNKSt3__110unique_ptrINS_11__hash_nodeINS_17__hash_value_typeIxxEEPvEENS_26__hash_map_node_destructorINS_9allocatorIS5_EEEEE3getB7v160006Ev, symObjAddr: 0x38A8, symBinAddr: 0x100005C44, symSize: 0x28 }
  - { offsetInCU: 0xF337, offset: 0xF337, size: 0x8, addend: 0x0, symName: __ZNSt3__14pairINS_19__hash_map_iteratorINS_15__hash_iteratorIPNS_11__hash_nodeINS_17__hash_value_typeIxxEEPvEEEEEEbEC1B7v160006IS9_bEERKNS0_IT_T0_EE, symObjAddr: 0x38D0, symBinAddr: 0x100005C6C, symSize: 0x34 }
  - { offsetInCU: 0xF381, offset: 0xF381, size: 0x8, addend: 0x0, symName: __ZNSt3__110unique_ptrINS_11__hash_nodeINS_17__hash_value_typeIxxEEPvEENS_26__hash_map_node_destructorINS_9allocatorIS5_EEEEE7releaseB7v160006Ev, symObjAddr: 0x3904, symBinAddr: 0x100005CA0, symSize: 0x44 }
  - { offsetInCU: 0xF3B6, offset: 0xF3B6, size: 0x8, addend: 0x0, symName: __ZNSt3__110unique_ptrINS_11__hash_nodeINS_17__hash_value_typeIxxEEPvEENS_26__hash_map_node_destructorINS_9allocatorIS5_EEEEED1B7v160006Ev, symObjAddr: 0x3948, symBinAddr: 0x100005CE4, symSize: 0x2C }
  - { offsetInCU: 0xF3E0, offset: 0xF3E0, size: 0x8, addend: 0x0, symName: __ZNSt3__112__hash_tableINS_17__hash_value_typeIxxEENS_22__unordered_map_hasherIxS2_NS_4hashIxEENS_8equal_toIxEELb1EEENS_21__unordered_map_equalIxS2_S7_S5_Lb1EEENS_9allocatorIS2_EEE4findIxEENS_15__hash_iteratorIPNS_11__hash_nodeIS2_PvEEEERKT_, symObjAddr: 0x3974, symBinAddr: 0x100005D10, symSize: 0x1B4 }
  - { offsetInCU: 0xF46A, offset: 0xF46A, size: 0x8, addend: 0x0, symName: __ZNSt3__119__hash_map_iteratorINS_15__hash_iteratorIPNS_11__hash_nodeINS_17__hash_value_typeIxxEEPvEEEEEC1B7v160006ES8_, symObjAddr: 0x3B28, symBinAddr: 0x100005EC4, symSize: 0x34 }
  - { offsetInCU: 0xF4A3, offset: 0xF4A3, size: 0x8, addend: 0x0, symName: __ZNSt3__112__hash_tableINS_17__hash_value_typeIxxEENS_22__unordered_map_hasherIxS2_NS_4hashIxEENS_8equal_toIxEELb1EEENS_21__unordered_map_equalIxS2_S7_S5_Lb1EEENS_9allocatorIS2_EEE13hash_functionB7v160006Ev, symObjAddr: 0x3B5C, symBinAddr: 0x100005EF8, symSize: 0x28 }
  - { offsetInCU: 0xF4C9, offset: 0xF4C9, size: 0x8, addend: 0x0, symName: __ZNKSt3__122__unordered_map_hasherIxNS_17__hash_value_typeIxxEENS_4hashIxEENS_8equal_toIxEELb1EEclB7v160006ERKx, symObjAddr: 0x3B84, symBinAddr: 0x100005F20, symSize: 0x30 }
  - { offsetInCU: 0xF4FE, offset: 0xF4FE, size: 0x8, addend: 0x0, symName: __ZNKSt3__112__hash_tableINS_17__hash_value_typeIxxEENS_22__unordered_map_hasherIxS2_NS_4hashIxEENS_8equal_toIxEELb1EEENS_21__unordered_map_equalIxS2_S7_S5_Lb1EEENS_9allocatorIS2_EEE12bucket_countB7v160006Ev, symObjAddr: 0x3BB4, symBinAddr: 0x100005F50, symSize: 0x28 }
  - { offsetInCU: 0xF524, offset: 0xF524, size: 0x8, addend: 0x0, symName: __ZNKSt3__110unique_ptrIA_PNS_16__hash_node_baseIPNS_11__hash_nodeINS_17__hash_value_typeIxxEEPvEEEENS_25__bucket_list_deallocatorINS_9allocatorIS9_EEEEEixB7v160006Em, symObjAddr: 0x3C74, symBinAddr: 0x100006010, symSize: 0x34 }
  - { offsetInCU: 0xF559, offset: 0xF559, size: 0x8, addend: 0x0, symName: __ZNKSt3__116__hash_node_baseIPNS_11__hash_nodeINS_17__hash_value_typeIxxEEPvEEE6__hashB7v160006Ev, symObjAddr: 0x3CA8, symBinAddr: 0x100006044, symSize: 0x18 }
  - { offsetInCU: 0xF57F, offset: 0xF57F, size: 0x8, addend: 0x0, symName: __ZNSt3__112__hash_tableINS_17__hash_value_typeIxxEENS_22__unordered_map_hasherIxS2_NS_4hashIxEENS_8equal_toIxEELb1EEENS_21__unordered_map_equalIxS2_S7_S5_Lb1EEENS_9allocatorIS2_EEE6key_eqB7v160006Ev, symObjAddr: 0x3CC0, symBinAddr: 0x10000605C, symSize: 0x28 }
  - { offsetInCU: 0xF5A5, offset: 0xF5A5, size: 0x8, addend: 0x0, symName: __ZNKSt3__121__unordered_map_equalIxNS_17__hash_value_typeIxxEENS_8equal_toIxEENS_4hashIxEELb1EEclB7v160006ERKS2_RKx, symObjAddr: 0x3CE8, symBinAddr: 0x100006084, symSize: 0x48 }
  - { offsetInCU: 0xF5E9, offset: 0xF5E9, size: 0x8, addend: 0x0, symName: __ZNSt3__115__hash_iteratorIPNS_11__hash_nodeINS_17__hash_value_typeIxxEEPvEEEC1B7v160006EPNS_16__hash_node_baseIS6_EEPKv, symObjAddr: 0x3D30, symBinAddr: 0x1000060CC, symSize: 0x3C }
  - { offsetInCU: 0xF631, offset: 0xF631, size: 0x8, addend: 0x0, symName: __ZNSt3__112__hash_tableINS_17__hash_value_typeIxxEENS_22__unordered_map_hasherIxS2_NS_4hashIxEENS_8equal_toIxEELb1EEENS_21__unordered_map_equalIxS2_S7_S5_Lb1EEENS_9allocatorIS2_EEE3endEv, symObjAddr: 0x3D6C, symBinAddr: 0x100006108, symSize: 0x30 }
  - { offsetInCU: 0xF659, offset: 0xF659, size: 0x8, addend: 0x0, symName: __ZNSt3__117__compressed_pairImNS_22__unordered_map_hasherIxNS_17__hash_value_typeIxxEENS_4hashIxEENS_8equal_toIxEELb1EEEE6secondB7v160006Ev, symObjAddr: 0x3D9C, symBinAddr: 0x100006138, symSize: 0x24 }
  - { offsetInCU: 0xF67F, offset: 0xF67F, size: 0x8, addend: 0x0, symName: __ZNSt3__122__compressed_pair_elemINS_22__unordered_map_hasherIxNS_17__hash_value_typeIxxEENS_4hashIxEENS_8equal_toIxEELb1EEELi1ELb1EE5__getB7v160006Ev, symObjAddr: 0x3DC0, symBinAddr: 0x10000615C, symSize: 0x14 }
  - { offsetInCU: 0xF6A5, offset: 0xF6A5, size: 0x8, addend: 0x0, symName: __ZNKSt3__113__scalar_hashIxLm1EEclB7v160006Ex, symObjAddr: 0x3DD4, symBinAddr: 0x100006170, symSize: 0x20 }
  - { offsetInCU: 0xF70B, offset: 0xF70B, size: 0x8, addend: 0x0, symName: __ZNKSt3__110unique_ptrIA_PNS_16__hash_node_baseIPNS_11__hash_nodeINS_17__hash_value_typeIxxEEPvEEEENS_25__bucket_list_deallocatorINS_9allocatorIS9_EEEEE11get_deleterB7v160006Ev, symObjAddr: 0x3DF4, symBinAddr: 0x100006190, symSize: 0x24 }
  - { offsetInCU: 0xF731, offset: 0xF731, size: 0x8, addend: 0x0, symName: __ZNKSt3__125__bucket_list_deallocatorINS_9allocatorIPNS_16__hash_node_baseIPNS_11__hash_nodeINS_17__hash_value_typeIxxEEPvEEEEEEE4sizeB7v160006Ev, symObjAddr: 0x3E18, symBinAddr: 0x1000061B4, symSize: 0x28 }
  - { offsetInCU: 0xF757, offset: 0xF757, size: 0x8, addend: 0x0, symName: __ZNKSt3__117__compressed_pairIPPNS_16__hash_node_baseIPNS_11__hash_nodeINS_17__hash_value_typeIxxEEPvEEEENS_25__bucket_list_deallocatorINS_9allocatorIS9_EEEEE6secondB7v160006Ev, symObjAddr: 0x3E40, symBinAddr: 0x1000061DC, symSize: 0x28 }
  - { offsetInCU: 0xF77D, offset: 0xF77D, size: 0x8, addend: 0x0, symName: __ZNKSt3__122__compressed_pair_elemINS_25__bucket_list_deallocatorINS_9allocatorIPNS_16__hash_node_baseIPNS_11__hash_nodeINS_17__hash_value_typeIxxEEPvEEEEEEEELi1ELb0EE5__getB7v160006Ev, symObjAddr: 0x3E68, symBinAddr: 0x100006204, symSize: 0x14 }
  - { offsetInCU: 0xF7A3, offset: 0xF7A3, size: 0x8, addend: 0x0, symName: __ZNKSt3__117__compressed_pairImNS_9allocatorIPNS_16__hash_node_baseIPNS_11__hash_nodeINS_17__hash_value_typeIxxEEPvEEEEEEE5firstB7v160006Ev, symObjAddr: 0x3E7C, symBinAddr: 0x100006218, symSize: 0x24 }
  - { offsetInCU: 0xF7C9, offset: 0xF7C9, size: 0x8, addend: 0x0, symName: __ZNKSt3__122__compressed_pair_elemImLi0ELb0EE5__getB7v160006Ev, symObjAddr: 0x3EA0, symBinAddr: 0x10000623C, symSize: 0x14 }
  - { offsetInCU: 0xF7EF, offset: 0xF7EF, size: 0x8, addend: 0x0, symName: __ZNKSt3__117__compressed_pairIPPNS_16__hash_node_baseIPNS_11__hash_nodeINS_17__hash_value_typeIxxEEPvEEEENS_25__bucket_list_deallocatorINS_9allocatorIS9_EEEEE5firstB7v160006Ev, symObjAddr: 0x3EB4, symBinAddr: 0x100006250, symSize: 0x24 }
  - { offsetInCU: 0xF815, offset: 0xF815, size: 0x8, addend: 0x0, symName: __ZNKSt3__122__compressed_pair_elemIPPNS_16__hash_node_baseIPNS_11__hash_nodeINS_17__hash_value_typeIxxEEPvEEEELi0ELb0EE5__getB7v160006Ev, symObjAddr: 0x3ED8, symBinAddr: 0x100006274, symSize: 0x14 }
  - { offsetInCU: 0xF83B, offset: 0xF83B, size: 0x8, addend: 0x0, symName: __ZNSt3__117__compressed_pairIfNS_21__unordered_map_equalIxNS_17__hash_value_typeIxxEENS_8equal_toIxEENS_4hashIxEELb1EEEE6secondB7v160006Ev, symObjAddr: 0x3EEC, symBinAddr: 0x100006288, symSize: 0x24 }
  - { offsetInCU: 0xF861, offset: 0xF861, size: 0x8, addend: 0x0, symName: __ZNSt3__122__compressed_pair_elemINS_21__unordered_map_equalIxNS_17__hash_value_typeIxxEENS_8equal_toIxEENS_4hashIxEELb1EEELi1ELb1EE5__getB7v160006Ev, symObjAddr: 0x3F10, symBinAddr: 0x1000062AC, symSize: 0x14 }
  - { offsetInCU: 0xF887, offset: 0xF887, size: 0x8, addend: 0x0, symName: __ZNKSt3__18equal_toIxEclB7v160006ERKxS3_, symObjAddr: 0x3F24, symBinAddr: 0x1000062C0, symSize: 0x34 }
  - { offsetInCU: 0xF8CB, offset: 0xF8CB, size: 0x8, addend: 0x0, symName: __ZNKSt3__117__hash_value_typeIxxE11__get_valueB7v160006Ev, symObjAddr: 0x3F58, symBinAddr: 0x1000062F4, symSize: 0x14 }
  - { offsetInCU: 0xF8F1, offset: 0xF8F1, size: 0x8, addend: 0x0, symName: __ZNSt3__115__hash_iteratorIPNS_11__hash_nodeINS_17__hash_value_typeIxxEEPvEEEC2B7v160006EPNS_16__hash_node_baseIS6_EEPKv, symObjAddr: 0x3F6C, symBinAddr: 0x100006308, symSize: 0x24 }
  - { offsetInCU: 0xF939, offset: 0xF939, size: 0x8, addend: 0x0, symName: __ZNSt3__119__hash_map_iteratorINS_15__hash_iteratorIPNS_11__hash_nodeINS_17__hash_value_typeIxxEEPvEEEEEC2B7v160006ES8_, symObjAddr: 0x3F90, symBinAddr: 0x10000632C, symSize: 0x20 }
  - { offsetInCU: 0xF972, offset: 0xF972, size: 0x8, addend: 0x0, symName: __ZNSt3__114pointer_traitsIPNS_4pairIKxxEEE10pointer_toB7v160006ERS3_, symObjAddr: 0x4014, symBinAddr: 0x1000063B0, symSize: 0x14 }
  - { offsetInCU: 0xF995, offset: 0xF995, size: 0x8, addend: 0x0, symName: __ZNKSt3__115__hash_iteratorIPNS_11__hash_nodeINS_17__hash_value_typeIxxEEPvEEEptB7v160006Ev, symObjAddr: 0x4028, symBinAddr: 0x1000063C4, symSize: 0x30 }
  - { offsetInCU: 0xF9BB, offset: 0xF9BB, size: 0x8, addend: 0x0, symName: __ZNSt3__114pointer_traitsIPNS_17__hash_value_typeIxxEEE10pointer_toB7v160006ERS2_, symObjAddr: 0x4058, symBinAddr: 0x1000063F4, symSize: 0x14 }
  - { offsetInCU: 0xF9DE, offset: 0xF9DE, size: 0x8, addend: 0x0, symName: __ZNSt3__116allocator_traitsINS_9allocatorINS_11__hash_nodeINS_17__hash_value_typeIxxEEPvEEEEE8allocateB7v160006ERS7_m, symObjAddr: 0x406C, symBinAddr: 0x100006408, symSize: 0x2C }
  - { offsetInCU: 0xFA11, offset: 0xFA11, size: 0x8, addend: 0x0, symName: __ZNSt3__126__hash_map_node_destructorINS_9allocatorINS_11__hash_nodeINS_17__hash_value_typeIxxEEPvEEEEEC1B7v160006ERS7_, symObjAddr: 0x4098, symBinAddr: 0x100006434, symSize: 0x34 }
  - { offsetInCU: 0xFA4F, offset: 0xFA4F, size: 0x8, addend: 0x0, symName: __ZNSt3__110unique_ptrINS_11__hash_nodeINS_17__hash_value_typeIxxEEPvEENS_26__hash_map_node_destructorINS_9allocatorIS5_EEEEEC1B7v160006ILb1EvEEPS5_NS_16__dependent_typeINS_27__unique_ptr_deleter_sfinaeIS9_EEXT_EE20__good_rval_ref_typeE, symObjAddr: 0x40CC, symBinAddr: 0x100006468, symSize: 0x3C }
  - { offsetInCU: 0xFAA0, offset: 0xFAA0, size: 0x8, addend: 0x0, symName: __ZNSt3__116allocator_traitsINS_9allocatorINS_11__hash_nodeINS_17__hash_value_typeIxxEEPvEEEEE9constructB7v160006IKxJRSA_EvEEvRS7_PT_DpOT0_, symObjAddr: 0x4108, symBinAddr: 0x1000064A4, symSize: 0x34 }
  - { offsetInCU: 0xFAF7, offset: 0xFAF7, size: 0x8, addend: 0x0, symName: __ZNKSt3__110unique_ptrINS_11__hash_nodeINS_17__hash_value_typeIxxEEPvEENS_26__hash_map_node_destructorINS_9allocatorIS5_EEEEEptB7v160006Ev, symObjAddr: 0x413C, symBinAddr: 0x1000064D8, symSize: 0x28 }
  - { offsetInCU: 0xFB1D, offset: 0xFB1D, size: 0x8, addend: 0x0, symName: __ZNSt3__110unique_ptrINS_11__hash_nodeINS_17__hash_value_typeIxxEEPvEENS_26__hash_map_node_destructorINS_9allocatorIS5_EEEEE11get_deleterB7v160006Ev, symObjAddr: 0x4164, symBinAddr: 0x100006500, symSize: 0x24 }
  - { offsetInCU: 0xFB43, offset: 0xFB43, size: 0x8, addend: 0x0, symName: __ZNSt3__116allocator_traitsINS_9allocatorINS_11__hash_nodeINS_17__hash_value_typeIxxEEPvEEEEE9constructB7v160006IxJEvEEvRS7_PT_DpOT0_, symObjAddr: 0x4188, symBinAddr: 0x100006524, symSize: 0x2C }
  - { offsetInCU: 0xFB85, offset: 0xFB85, size: 0x8, addend: 0x0, symName: __ZNSt3__19allocatorINS_11__hash_nodeINS_17__hash_value_typeIxxEEPvEEE8allocateB7v160006Em, symObjAddr: 0x41B4, symBinAddr: 0x100006550, symSize: 0x84 }
  - { offsetInCU: 0xFBC3, offset: 0xFBC3, size: 0x8, addend: 0x0, symName: __ZNSt3__116allocator_traitsINS_9allocatorINS_11__hash_nodeINS_17__hash_value_typeIxxEEPvEEEEE8max_sizeB7v160006IS7_vEEmRKS7_, symObjAddr: 0x4238, symBinAddr: 0x1000065D4, symSize: 0x24 }
  - { offsetInCU: 0xFBF1, offset: 0xFBF1, size: 0x8, addend: 0x0, symName: __ZNKSt3__19allocatorINS_11__hash_nodeINS_17__hash_value_typeIxxEEPvEEE8max_sizeB7v160006Ev, symObjAddr: 0x425C, symBinAddr: 0x1000065F8, symSize: 0x14 }
  - { offsetInCU: 0xFC17, offset: 0xFC17, size: 0x8, addend: 0x0, symName: __ZNSt3__126__hash_map_node_destructorINS_9allocatorINS_11__hash_nodeINS_17__hash_value_typeIxxEEPvEEEEEC2B7v160006ERS7_, symObjAddr: 0x4270, symBinAddr: 0x10000660C, symSize: 0x28 }
  - { offsetInCU: 0xFC50, offset: 0xFC50, size: 0x8, addend: 0x0, symName: __ZNSt3__110unique_ptrINS_11__hash_nodeINS_17__hash_value_typeIxxEEPvEENS_26__hash_map_node_destructorINS_9allocatorIS5_EEEEEC2B7v160006ILb1EvEEPS5_NS_16__dependent_typeINS_27__unique_ptr_deleter_sfinaeIS9_EEXT_EE20__good_rval_ref_typeE, symObjAddr: 0x4298, symBinAddr: 0x100006634, symSize: 0x5C }
  - { offsetInCU: 0xFCA1, offset: 0xFCA1, size: 0x8, addend: 0x0, symName: __ZNSt3__117__compressed_pairIPNS_11__hash_nodeINS_17__hash_value_typeIxxEEPvEENS_26__hash_map_node_destructorINS_9allocatorIS5_EEEEEC1B7v160006IRS6_SA_EEOT_OT0_, symObjAddr: 0x42F4, symBinAddr: 0x100006690, symSize: 0x3C }
  - { offsetInCU: 0xFCF9, offset: 0xFCF9, size: 0x8, addend: 0x0, symName: __ZNSt3__117__compressed_pairIPNS_11__hash_nodeINS_17__hash_value_typeIxxEEPvEENS_26__hash_map_node_destructorINS_9allocatorIS5_EEEEEC2B7v160006IRS6_SA_EEOT_OT0_, symObjAddr: 0x4330, symBinAddr: 0x1000066CC, symSize: 0x48 }
  - { offsetInCU: 0xFD51, offset: 0xFD51, size: 0x8, addend: 0x0, symName: __ZNSt3__122__compressed_pair_elemIPNS_11__hash_nodeINS_17__hash_value_typeIxxEEPvEELi0ELb0EEC2B7v160006IRS6_vEEOT_, symObjAddr: 0x4378, symBinAddr: 0x100006714, symSize: 0x24 }
  - { offsetInCU: 0xFD93, offset: 0xFD93, size: 0x8, addend: 0x0, symName: __ZNSt3__122__compressed_pair_elemINS_26__hash_map_node_destructorINS_9allocatorINS_11__hash_nodeINS_17__hash_value_typeIxxEEPvEEEEEELi1ELb0EEC2B7v160006IS9_vEEOT_, symObjAddr: 0x439C, symBinAddr: 0x100006738, symSize: 0x24 }
  - { offsetInCU: 0xFDD5, offset: 0xFDD5, size: 0x8, addend: 0x0, symName: __ZNSt3__19allocatorINS_11__hash_nodeINS_17__hash_value_typeIxxEEPvEEE9constructB7v160006IKxJRS8_EEEvPT_DpOT0_, symObjAddr: 0x43C0, symBinAddr: 0x10000675C, symSize: 0x28 }
  - { offsetInCU: 0xFE2B, offset: 0xFE2B, size: 0x8, addend: 0x0, symName: __ZNKSt3__117__compressed_pairIPNS_11__hash_nodeINS_17__hash_value_typeIxxEEPvEENS_26__hash_map_node_destructorINS_9allocatorIS5_EEEEE5firstB7v160006Ev, symObjAddr: 0x43E8, symBinAddr: 0x100006784, symSize: 0x24 }
  - { offsetInCU: 0xFE51, offset: 0xFE51, size: 0x8, addend: 0x0, symName: __ZNKSt3__122__compressed_pair_elemIPNS_11__hash_nodeINS_17__hash_value_typeIxxEEPvEELi0ELb0EE5__getB7v160006Ev, symObjAddr: 0x440C, symBinAddr: 0x1000067A8, symSize: 0x14 }
  - { offsetInCU: 0xFE77, offset: 0xFE77, size: 0x8, addend: 0x0, symName: __ZNSt3__117__compressed_pairIPNS_11__hash_nodeINS_17__hash_value_typeIxxEEPvEENS_26__hash_map_node_destructorINS_9allocatorIS5_EEEEE6secondB7v160006Ev, symObjAddr: 0x4420, symBinAddr: 0x1000067BC, symSize: 0x28 }
  - { offsetInCU: 0xFE9D, offset: 0xFE9D, size: 0x8, addend: 0x0, symName: __ZNSt3__122__compressed_pair_elemINS_26__hash_map_node_destructorINS_9allocatorINS_11__hash_nodeINS_17__hash_value_typeIxxEEPvEEEEEELi1ELb0EE5__getB7v160006Ev, symObjAddr: 0x4448, symBinAddr: 0x1000067E4, symSize: 0x14 }
  - { offsetInCU: 0xFEC3, offset: 0xFEC3, size: 0x8, addend: 0x0, symName: __ZNSt3__19allocatorINS_11__hash_nodeINS_17__hash_value_typeIxxEEPvEEE9constructB7v160006IxJEEEvPT_DpOT0_, symObjAddr: 0x445C, symBinAddr: 0x1000067F8, symSize: 0x1C }
  - { offsetInCU: 0xFF05, offset: 0xFF05, size: 0x8, addend: 0x0, symName: __ZNKSt3__122__unordered_map_hasherIxNS_17__hash_value_typeIxxEENS_4hashIxEENS_8equal_toIxEELb1EEclB7v160006ERKS2_, symObjAddr: 0x4478, symBinAddr: 0x100006814, symSize: 0x40 }
  - { offsetInCU: 0xFF3A, offset: 0xFF3A, size: 0x8, addend: 0x0, symName: __ZNSt3__112__hash_tableINS_17__hash_value_typeIxxEENS_22__unordered_map_hasherIxS2_NS_4hashIxEENS_8equal_toIxEELb1EEENS_21__unordered_map_equalIxS2_S7_S5_Lb1EEENS_9allocatorIS2_EEE28__node_insert_unique_prepareB7v160006EmRS2_, symObjAddr: 0x44B8, symBinAddr: 0x100006854, symSize: 0x244 }
  - { offsetInCU: 0xFFBB, offset: 0xFFBB, size: 0x8, addend: 0x0, symName: __ZNSt3__112__hash_tableINS_17__hash_value_typeIxxEENS_22__unordered_map_hasherIxS2_NS_4hashIxEENS_8equal_toIxEELb1EEENS_21__unordered_map_equalIxS2_S7_S5_Lb1EEENS_9allocatorIS2_EEE28__node_insert_unique_performB7v160006EPNS_11__hash_nodeIS2_PvEE, symObjAddr: 0x46FC, symBinAddr: 0x100006A98, symSize: 0x154 }
  - { offsetInCU: 0x1001F, offset: 0x1001F, size: 0x8, addend: 0x0, symName: __ZNSt3__116__hash_node_baseIPNS_11__hash_nodeINS_17__hash_value_typeIxxEEPvEEE5__ptrB7v160006Ev, symObjAddr: 0x4850, symBinAddr: 0x100006BEC, symSize: 0x24 }
  - { offsetInCU: 0x10045, offset: 0x10045, size: 0x8, addend: 0x0, symName: __ZNSt3__14pairINS_15__hash_iteratorIPNS_11__hash_nodeINS_17__hash_value_typeIxxEEPvEEEEbEC1B7v160006ERKS8_RKb, symObjAddr: 0x4874, symBinAddr: 0x100006C10, symSize: 0x3C }
  - { offsetInCU: 0x1008B, offset: 0x1008B, size: 0x8, addend: 0x0, symName: __ZNKSt3__121__unordered_map_equalIxNS_17__hash_value_typeIxxEENS_8equal_toIxEENS_4hashIxEELb1EEclB7v160006ERKS2_S9_, symObjAddr: 0x48B0, symBinAddr: 0x100006C4C, symSize: 0x54 }
  - { offsetInCU: 0x100CF, offset: 0x100CF, size: 0x8, addend: 0x0, symName: __ZNSt3__112__hash_tableINS_17__hash_value_typeIxxEENS_22__unordered_map_hasherIxS2_NS_4hashIxEENS_8equal_toIxEELb1EEENS_21__unordered_map_equalIxS2_S7_S5_Lb1EEENS_9allocatorIS2_EEE4sizeB7v160006Ev, symObjAddr: 0x4904, symBinAddr: 0x100006CA0, symSize: 0x28 }
  - { offsetInCU: 0x100F5, offset: 0x100F5, size: 0x8, addend: 0x0, symName: __ZNSt3__112__hash_tableINS_17__hash_value_typeIxxEENS_22__unordered_map_hasherIxS2_NS_4hashIxEENS_8equal_toIxEELb1EEENS_21__unordered_map_equalIxS2_S7_S5_Lb1EEENS_9allocatorIS2_EEE15max_load_factorB7v160006Ev, symObjAddr: 0x492C, symBinAddr: 0x100006CC8, symSize: 0x28 }
  - { offsetInCU: 0x1011B, offset: 0x1011B, size: 0x8, addend: 0x0, symName: __ZNSt3__112__hash_tableINS_17__hash_value_typeIxxEENS_22__unordered_map_hasherIxS2_NS_4hashIxEENS_8equal_toIxEELb1EEENS_21__unordered_map_equalIxS2_S7_S5_Lb1EEENS_9allocatorIS2_EEE15__rehash_uniqueB7v160006Em, symObjAddr: 0x4954, symBinAddr: 0x100006CF0, symSize: 0x2C }
  - { offsetInCU: 0x1014F, offset: 0x1014F, size: 0x8, addend: 0x0, symName: __Z4ceilB7v160006f, symObjAddr: 0x49FC, symBinAddr: 0x100006D98, symSize: 0x18 }
  - { offsetInCU: 0x1017E, offset: 0x1017E, size: 0x8, addend: 0x0, symName: __ZNSt3__117__compressed_pairImNS_22__unordered_map_hasherIxNS_17__hash_value_typeIxxEENS_4hashIxEENS_8equal_toIxEELb1EEEE5firstB7v160006Ev, symObjAddr: 0x4A14, symBinAddr: 0x100006DB0, symSize: 0x24 }
  - { offsetInCU: 0x101A4, offset: 0x101A4, size: 0x8, addend: 0x0, symName: __ZNSt3__117__compressed_pairIfNS_21__unordered_map_equalIxNS_17__hash_value_typeIxxEENS_8equal_toIxEENS_4hashIxEELb1EEEE5firstB7v160006Ev, symObjAddr: 0x4A38, symBinAddr: 0x100006DD4, symSize: 0x24 }
  - { offsetInCU: 0x101CA, offset: 0x101CA, size: 0x8, addend: 0x0, symName: __ZNSt3__122__compressed_pair_elemIfLi0ELb0EE5__getB7v160006Ev, symObjAddr: 0x4A5C, symBinAddr: 0x100006DF8, symSize: 0x14 }
  - { offsetInCU: 0x101F0, offset: 0x101F0, size: 0x8, addend: 0x0, symName: __ZNSt3__112__hash_tableINS_17__hash_value_typeIxxEENS_22__unordered_map_hasherIxS2_NS_4hashIxEENS_8equal_toIxEELb1EEENS_21__unordered_map_equalIxS2_S7_S5_Lb1EEENS_9allocatorIS2_EEE8__rehashILb1EEEvm, symObjAddr: 0x4A70, symBinAddr: 0x100006E0C, symSize: 0x1A8 }
  - { offsetInCU: 0x10240, offset: 0x10240, size: 0x8, addend: 0x0, symName: __ZNSt3__112__hash_tableINS_17__hash_value_typeIxxEENS_22__unordered_map_hasherIxS2_NS_4hashIxEENS_8equal_toIxEELb1EEENS_21__unordered_map_equalIxS2_S7_S5_Lb1EEENS_9allocatorIS2_EEE11__do_rehashILb1EEEvm, symObjAddr: 0x4C18, symBinAddr: 0x100006FB4, symSize: 0x290 }
  - { offsetInCU: 0x10323, offset: 0x10323, size: 0x8, addend: 0x0, symName: __ZNSt3__110unique_ptrIA_PNS_16__hash_node_baseIPNS_11__hash_nodeINS_17__hash_value_typeIxxEEPvEEEENS_25__bucket_list_deallocatorINS_9allocatorIS9_EEEEE11get_deleterB7v160006Ev, symObjAddr: 0x4F24, symBinAddr: 0x1000072C0, symSize: 0x24 }
  - { offsetInCU: 0x10349, offset: 0x10349, size: 0x8, addend: 0x0, symName: __ZNSt3__110unique_ptrIA_PNS_16__hash_node_baseIPNS_11__hash_nodeINS_17__hash_value_typeIxxEEPvEEEENS_25__bucket_list_deallocatorINS_9allocatorIS9_EEEEE5resetB7v160006IPS9_EENS_9enable_ifIXsr28_CheckArrayPointerConversionIT_EE5valueEvE4typeESJ_, symObjAddr: 0x4F48, symBinAddr: 0x1000072E4, symSize: 0x78 }
  - { offsetInCU: 0x10396, offset: 0x10396, size: 0x8, addend: 0x0, symName: __ZNSt3__116allocator_traitsINS_9allocatorIPNS_16__hash_node_baseIPNS_11__hash_nodeINS_17__hash_value_typeIxxEEPvEEEEEEE8allocateB7v160006ERSB_m, symObjAddr: 0x4FC0, symBinAddr: 0x10000735C, symSize: 0x2C }
  - { offsetInCU: 0x103C9, offset: 0x103C9, size: 0x8, addend: 0x0, symName: __ZNSt3__19allocatorIPNS_16__hash_node_baseIPNS_11__hash_nodeINS_17__hash_value_typeIxxEEPvEEEEE8allocateB7v160006Em, symObjAddr: 0x4FEC, symBinAddr: 0x100007388, symSize: 0x84 }
  - { offsetInCU: 0x10407, offset: 0x10407, size: 0x8, addend: 0x0, symName: __ZNSt3__116allocator_traitsINS_9allocatorIPNS_16__hash_node_baseIPNS_11__hash_nodeINS_17__hash_value_typeIxxEEPvEEEEEEE8max_sizeB7v160006ISB_vEEmRKSB_, symObjAddr: 0x5070, symBinAddr: 0x10000740C, symSize: 0x24 }
  - { offsetInCU: 0x10435, offset: 0x10435, size: 0x8, addend: 0x0, symName: __ZNKSt3__19allocatorIPNS_16__hash_node_baseIPNS_11__hash_nodeINS_17__hash_value_typeIxxEEPvEEEEE8max_sizeB7v160006Ev, symObjAddr: 0x5094, symBinAddr: 0x100007430, symSize: 0x14 }
  - { offsetInCU: 0x1045B, offset: 0x1045B, size: 0x8, addend: 0x0, symName: __ZNSt3__14pairINS_15__hash_iteratorIPNS_11__hash_nodeINS_17__hash_value_typeIxxEEPvEEEEbEC2B7v160006ERKS8_RKb, symObjAddr: 0x5118, symBinAddr: 0x1000074B4, symSize: 0x38 }
  - { offsetInCU: 0x104A1, offset: 0x104A1, size: 0x8, addend: 0x0, symName: __ZNSt3__14pairINS_19__hash_map_iteratorINS_15__hash_iteratorIPNS_11__hash_nodeINS_17__hash_value_typeIxxEEPvEEEEEEbEC2B7v160006IS9_bEERKNS0_IT_T0_EE, symObjAddr: 0x5150, symBinAddr: 0x1000074EC, symSize: 0x50 }
  - { offsetInCU: 0x104EB, offset: 0x104EB, size: 0x8, addend: 0x0, symName: __ZNSt3__117__compressed_pairIPNS_11__hash_nodeINS_17__hash_value_typeIxxEEPvEENS_26__hash_map_node_destructorINS_9allocatorIS5_EEEEE5firstB7v160006Ev, symObjAddr: 0x51A0, symBinAddr: 0x10000753C, symSize: 0x24 }
  - { offsetInCU: 0x10511, offset: 0x10511, size: 0x8, addend: 0x0, symName: __ZNSt3__122__compressed_pair_elemIPNS_11__hash_nodeINS_17__hash_value_typeIxxEEPvEELi0ELb0EE5__getB7v160006Ev, symObjAddr: 0x51C4, symBinAddr: 0x100007560, symSize: 0x14 }
  - { offsetInCU: 0x10537, offset: 0x10537, size: 0x8, addend: 0x0, symName: __ZNSt3__110unique_ptrINS_11__hash_nodeINS_17__hash_value_typeIxxEEPvEENS_26__hash_map_node_destructorINS_9allocatorIS5_EEEEED2B7v160006Ev, symObjAddr: 0x51D8, symBinAddr: 0x100007574, symSize: 0x30 }
  - { offsetInCU: 0x10561, offset: 0x10561, size: 0x8, addend: 0x0, symName: __ZNSt3__110unique_ptrINS_11__hash_nodeINS_17__hash_value_typeIxxEEPvEENS_26__hash_map_node_destructorINS_9allocatorIS5_EEEEE5resetB7v160006EPS5_, symObjAddr: 0x5208, symBinAddr: 0x1000075A4, symSize: 0x78 }
  - { offsetInCU: 0x105A5, offset: 0x105A5, size: 0x8, addend: 0x0, symName: __ZNSt3__126__hash_map_node_destructorINS_9allocatorINS_11__hash_nodeINS_17__hash_value_typeIxxEEPvEEEEEclB7v160006EPS6_, symObjAddr: 0x5280, symBinAddr: 0x10000761C, symSize: 0xE4 }
  - { offsetInCU: 0x105DA, offset: 0x105DA, size: 0x8, addend: 0x0, symName: __ZNSt3__116allocator_traitsINS_9allocatorINS_11__hash_nodeINS_17__hash_value_typeIxxEEPvEEEEE7destroyB7v160006IxvvEEvRS7_PT_, symObjAddr: 0x5364, symBinAddr: 0x100007700, symSize: 0x14 }
  - { offsetInCU: 0x10615, offset: 0x10615, size: 0x8, addend: 0x0, symName: __ZNSt3__116allocator_traitsINS_9allocatorINS_11__hash_nodeINS_17__hash_value_typeIxxEEPvEEEEE7destroyB7v160006IKxvvEEvRS7_PT_, symObjAddr: 0x5378, symBinAddr: 0x100007714, symSize: 0x14 }
  - { offsetInCU: 0x10650, offset: 0x10650, size: 0x8, addend: 0x0, symName: __ZNKSt3__19basic_iosIcNS_11char_traitsIcEEE5widenB7v160006Ec, symObjAddr: 0x538C, symBinAddr: 0x100007728, symSize: 0x8C }
  - { offsetInCU: 0x106BE, offset: 0x106BE, size: 0x8, addend: 0x0, symName: __ZNKSt3__15ctypeIcE5widenB7v160006Ec, symObjAddr: 0x5444, symBinAddr: 0x1000077E0, symSize: 0x38 }
...
